
bins/c_tests/hello_world.r5o:     file format elf32-littleriscv


Disassembly of section .text:

80002000 <main>:
80002000:	7179                	add	sp,sp,-48
80002002:	d606                	sw	ra,44(sp)
80002004:	d422                	sw	s0,40(sp)
80002006:	1800                	add	s0,sp,48
80002008:	fca42e23          	sw	a0,-36(s0)
8000200c:	fcb42c23          	sw	a1,-40(s0)
80002010:	4581                	li	a1,0
80002012:	00002517          	auipc	a0,0x2
80002016:	c5a50513          	add	a0,a0,-934 # 80003c6c <__eqdf2+0x8c>
8000201a:	605000ef          	jal	80002e1e <printf>
8000201e:	fe042623          	sw	zero,-20(s0)
80002022:	fe042423          	sw	zero,-24(s0)
80002026:	a829                	j	80002040 <main+0x40>
80002028:	fec42703          	lw	a4,-20(s0)
8000202c:	fe842783          	lw	a5,-24(s0)
80002030:	97ba                	add	a5,a5,a4
80002032:	fef42623          	sw	a5,-20(s0)
80002036:	fe842783          	lw	a5,-24(s0)
8000203a:	0785                	add	a5,a5,1
8000203c:	fef42423          	sw	a5,-24(s0)
80002040:	fe842703          	lw	a4,-24(s0)
80002044:	4791                	li	a5,4
80002046:	fee7d1e3          	bge	a5,a4,80002028 <main+0x28>
8000204a:	4781                	li	a5,0
8000204c:	853e                	mv	a0,a5
8000204e:	50b2                	lw	ra,44(sp)
80002050:	5422                	lw	s0,40(sp)
80002052:	6145                	add	sp,sp,48
80002054:	8082                	ret

80002056 <verify>:
80002056:	7139                	add	sp,sp,-64
80002058:	de22                	sw	s0,60(sp)
8000205a:	0080                	add	s0,sp,64
8000205c:	fca42623          	sw	a0,-52(s0)
80002060:	fcb42423          	sw	a1,-56(s0)
80002064:	fcc42223          	sw	a2,-60(s0)
80002068:	fe042623          	sw	zero,-20(s0)
8000206c:	a041                	j	800020ec <verify+0x96>
8000206e:	fec42783          	lw	a5,-20(s0)
80002072:	078a                	sll	a5,a5,0x2
80002074:	fc842703          	lw	a4,-56(s0)
80002078:	97ba                	add	a5,a5,a4
8000207a:	439c                	lw	a5,0(a5)
8000207c:	fef42423          	sw	a5,-24(s0)
80002080:	fec42783          	lw	a5,-20(s0)
80002084:	0785                	add	a5,a5,1
80002086:	078a                	sll	a5,a5,0x2
80002088:	fc842703          	lw	a4,-56(s0)
8000208c:	97ba                	add	a5,a5,a4
8000208e:	439c                	lw	a5,0(a5)
80002090:	fef42223          	sw	a5,-28(s0)
80002094:	fec42783          	lw	a5,-20(s0)
80002098:	078a                	sll	a5,a5,0x2
8000209a:	fc442703          	lw	a4,-60(s0)
8000209e:	97ba                	add	a5,a5,a4
800020a0:	439c                	lw	a5,0(a5)
800020a2:	fef42023          	sw	a5,-32(s0)
800020a6:	fec42783          	lw	a5,-20(s0)
800020aa:	0785                	add	a5,a5,1
800020ac:	078a                	sll	a5,a5,0x2
800020ae:	fc442703          	lw	a4,-60(s0)
800020b2:	97ba                	add	a5,a5,a4
800020b4:	439c                	lw	a5,0(a5)
800020b6:	fcf42e23          	sw	a5,-36(s0)
800020ba:	fe842703          	lw	a4,-24(s0)
800020be:	fe042783          	lw	a5,-32(s0)
800020c2:	00f70663          	beq	a4,a5,800020ce <verify+0x78>
800020c6:	fec42783          	lw	a5,-20(s0)
800020ca:	0785                	add	a5,a5,1
800020cc:	a89d                	j	80002142 <verify+0xec>
800020ce:	fe442703          	lw	a4,-28(s0)
800020d2:	fdc42783          	lw	a5,-36(s0)
800020d6:	00f70663          	beq	a4,a5,800020e2 <verify+0x8c>
800020da:	fec42783          	lw	a5,-20(s0)
800020de:	0789                	add	a5,a5,2
800020e0:	a08d                	j	80002142 <verify+0xec>
800020e2:	fec42783          	lw	a5,-20(s0)
800020e6:	0789                	add	a5,a5,2
800020e8:	fef42623          	sw	a5,-20(s0)
800020ec:	fcc42783          	lw	a5,-52(s0)
800020f0:	01f7d713          	srl	a4,a5,0x1f
800020f4:	97ba                	add	a5,a5,a4
800020f6:	8785                	sra	a5,a5,0x1
800020f8:	0786                	sll	a5,a5,0x1
800020fa:	fec42703          	lw	a4,-20(s0)
800020fe:	f6f748e3          	blt	a4,a5,8000206e <verify+0x18>
80002102:	fcc42783          	lw	a5,-52(s0)
80002106:	8b85                	and	a5,a5,1
80002108:	cf85                	beqz	a5,80002140 <verify+0xea>
8000210a:	fcc42703          	lw	a4,-52(s0)
8000210e:	400007b7          	lui	a5,0x40000
80002112:	17fd                	add	a5,a5,-1 # 3fffffff <buflen.1+0x3fffffbf>
80002114:	97ba                	add	a5,a5,a4
80002116:	078a                	sll	a5,a5,0x2
80002118:	fc842703          	lw	a4,-56(s0)
8000211c:	97ba                	add	a5,a5,a4
8000211e:	4398                	lw	a4,0(a5)
80002120:	fcc42683          	lw	a3,-52(s0)
80002124:	400007b7          	lui	a5,0x40000
80002128:	17fd                	add	a5,a5,-1 # 3fffffff <buflen.1+0x3fffffbf>
8000212a:	97b6                	add	a5,a5,a3
8000212c:	078a                	sll	a5,a5,0x2
8000212e:	fc442683          	lw	a3,-60(s0)
80002132:	97b6                	add	a5,a5,a3
80002134:	439c                	lw	a5,0(a5)
80002136:	00f70563          	beq	a4,a5,80002140 <verify+0xea>
8000213a:	fcc42783          	lw	a5,-52(s0)
8000213e:	a011                	j	80002142 <verify+0xec>
80002140:	4781                	li	a5,0
80002142:	853e                	mv	a0,a5
80002144:	5472                	lw	s0,60(sp)
80002146:	6121                	add	sp,sp,64
80002148:	8082                	ret

8000214a <verifyDouble>:
8000214a:	715d                	add	sp,sp,-80
8000214c:	c686                	sw	ra,76(sp)
8000214e:	c4a2                	sw	s0,72(sp)
80002150:	c2a6                	sw	s1,68(sp)
80002152:	0880                	add	s0,sp,80
80002154:	faa42e23          	sw	a0,-68(s0)
80002158:	fab42c23          	sw	a1,-72(s0)
8000215c:	fac42a23          	sw	a2,-76(s0)
80002160:	fe042623          	sw	zero,-20(s0)
80002164:	a8d1                	j	80002238 <verifyDouble+0xee>
80002166:	fec42783          	lw	a5,-20(s0)
8000216a:	078e                	sll	a5,a5,0x3
8000216c:	fb842703          	lw	a4,-72(s0)
80002170:	97ba                	add	a5,a5,a4
80002172:	4398                	lw	a4,0(a5)
80002174:	43dc                	lw	a5,4(a5)
80002176:	fee42023          	sw	a4,-32(s0)
8000217a:	fef42223          	sw	a5,-28(s0)
8000217e:	fec42783          	lw	a5,-20(s0)
80002182:	0785                	add	a5,a5,1
80002184:	078e                	sll	a5,a5,0x3
80002186:	fb842703          	lw	a4,-72(s0)
8000218a:	97ba                	add	a5,a5,a4
8000218c:	4398                	lw	a4,0(a5)
8000218e:	43dc                	lw	a5,4(a5)
80002190:	fce42c23          	sw	a4,-40(s0)
80002194:	fcf42e23          	sw	a5,-36(s0)
80002198:	fec42783          	lw	a5,-20(s0)
8000219c:	078e                	sll	a5,a5,0x3
8000219e:	fb442703          	lw	a4,-76(s0)
800021a2:	97ba                	add	a5,a5,a4
800021a4:	4398                	lw	a4,0(a5)
800021a6:	43dc                	lw	a5,4(a5)
800021a8:	fce42823          	sw	a4,-48(s0)
800021ac:	fcf42a23          	sw	a5,-44(s0)
800021b0:	fec42783          	lw	a5,-20(s0)
800021b4:	0785                	add	a5,a5,1
800021b6:	078e                	sll	a5,a5,0x3
800021b8:	fb442703          	lw	a4,-76(s0)
800021bc:	97ba                	add	a5,a5,a4
800021be:	4398                	lw	a4,0(a5)
800021c0:	43dc                	lw	a5,4(a5)
800021c2:	fce42423          	sw	a4,-56(s0)
800021c6:	fcf42623          	sw	a5,-52(s0)
800021ca:	4485                	li	s1,1
800021cc:	fd042603          	lw	a2,-48(s0)
800021d0:	fd442683          	lw	a3,-44(s0)
800021d4:	fe042503          	lw	a0,-32(s0)
800021d8:	fe442583          	lw	a1,-28(s0)
800021dc:	205010ef          	jal	80003be0 <__eqdf2>
800021e0:	87aa                	mv	a5,a0
800021e2:	c391                	beqz	a5,800021e6 <verifyDouble+0x9c>
800021e4:	4481                	li	s1,0
800021e6:	0ff4f793          	zext.b	a5,s1
800021ea:	fcf42223          	sw	a5,-60(s0)
800021ee:	4485                	li	s1,1
800021f0:	fc842603          	lw	a2,-56(s0)
800021f4:	fcc42683          	lw	a3,-52(s0)
800021f8:	fd842503          	lw	a0,-40(s0)
800021fc:	fdc42583          	lw	a1,-36(s0)
80002200:	1e1010ef          	jal	80003be0 <__eqdf2>
80002204:	87aa                	mv	a5,a0
80002206:	c391                	beqz	a5,8000220a <verifyDouble+0xc0>
80002208:	4481                	li	s1,0
8000220a:	0ff4f793          	zext.b	a5,s1
8000220e:	fcf42023          	sw	a5,-64(s0)
80002212:	fc442703          	lw	a4,-60(s0)
80002216:	fc042783          	lw	a5,-64(s0)
8000221a:	8ff9                	and	a5,a5,a4
8000221c:	eb89                	bnez	a5,8000222e <verifyDouble+0xe4>
8000221e:	fec42783          	lw	a5,-20(s0)
80002222:	00178713          	add	a4,a5,1
80002226:	fc442783          	lw	a5,-60(s0)
8000222a:	97ba                	add	a5,a5,a4
8000222c:	a0bd                	j	8000229a <verifyDouble+0x150>
8000222e:	fec42783          	lw	a5,-20(s0)
80002232:	0789                	add	a5,a5,2
80002234:	fef42623          	sw	a5,-20(s0)
80002238:	fbc42783          	lw	a5,-68(s0)
8000223c:	01f7d713          	srl	a4,a5,0x1f
80002240:	97ba                	add	a5,a5,a4
80002242:	8785                	sra	a5,a5,0x1
80002244:	0786                	sll	a5,a5,0x1
80002246:	fec42703          	lw	a4,-20(s0)
8000224a:	f0f74ee3          	blt	a4,a5,80002166 <verifyDouble+0x1c>
8000224e:	fbc42783          	lw	a5,-68(s0)
80002252:	8b85                	and	a5,a5,1
80002254:	c3b1                	beqz	a5,80002298 <verifyDouble+0x14e>
80002256:	fbc42703          	lw	a4,-68(s0)
8000225a:	200007b7          	lui	a5,0x20000
8000225e:	17fd                	add	a5,a5,-1 # 1fffffff <buflen.1+0x1fffffbf>
80002260:	97ba                	add	a5,a5,a4
80002262:	078e                	sll	a5,a5,0x3
80002264:	fb842703          	lw	a4,-72(s0)
80002268:	97ba                	add	a5,a5,a4
8000226a:	4398                	lw	a4,0(a5)
8000226c:	43dc                	lw	a5,4(a5)
8000226e:	fbc42603          	lw	a2,-68(s0)
80002272:	200006b7          	lui	a3,0x20000
80002276:	16fd                	add	a3,a3,-1 # 1fffffff <buflen.1+0x1fffffbf>
80002278:	96b2                	add	a3,a3,a2
8000227a:	068e                	sll	a3,a3,0x3
8000227c:	fb442603          	lw	a2,-76(s0)
80002280:	96b2                	add	a3,a3,a2
80002282:	4290                	lw	a2,0(a3)
80002284:	42d4                	lw	a3,4(a3)
80002286:	853a                	mv	a0,a4
80002288:	85be                	mv	a1,a5
8000228a:	157010ef          	jal	80003be0 <__eqdf2>
8000228e:	87aa                	mv	a5,a0
80002290:	c781                	beqz	a5,80002298 <verifyDouble+0x14e>
80002292:	fbc42783          	lw	a5,-68(s0)
80002296:	a011                	j	8000229a <verifyDouble+0x150>
80002298:	4781                	li	a5,0
8000229a:	853e                	mv	a0,a5
8000229c:	40b6                	lw	ra,76(sp)
8000229e:	4426                	lw	s0,72(sp)
800022a0:	4496                	lw	s1,68(sp)
800022a2:	6161                	add	sp,sp,80
800022a4:	8082                	ret

800022a6 <barrier>:
800022a6:	1101                	add	sp,sp,-32
800022a8:	ce22                	sw	s0,28(sp)
800022aa:	1000                	add	s0,sp,32
800022ac:	fea42623          	sw	a0,-20(s0)
800022b0:	0001                	nop
800022b2:	4472                	lw	s0,28(sp)
800022b4:	6105                	add	sp,sp,32
800022b6:	8082                	ret

800022b8 <lfsr>:
800022b8:	7179                	add	sp,sp,-48
800022ba:	d622                	sw	s0,44(sp)
800022bc:	1800                	add	s0,sp,48
800022be:	fca42c23          	sw	a0,-40(s0)
800022c2:	fcb42e23          	sw	a1,-36(s0)
800022c6:	fdc42583          	lw	a1,-36(s0)
800022ca:	05fe                	sll	a1,a1,0x1f
800022cc:	fd842503          	lw	a0,-40(s0)
800022d0:	00155613          	srl	a2,a0,0x1
800022d4:	8e4d                	or	a2,a2,a1
800022d6:	fdc42583          	lw	a1,-36(s0)
800022da:	0015d693          	srl	a3,a1,0x1
800022de:	fd842583          	lw	a1,-40(s0)
800022e2:	00c5c833          	xor	a6,a1,a2
800022e6:	fdc42583          	lw	a1,-36(s0)
800022ea:	00d5c8b3          	xor	a7,a1,a3
800022ee:	00187693          	and	a3,a6,1
800022f2:	fed42423          	sw	a3,-24(s0)
800022f6:	0008f693          	and	a3,a7,0
800022fa:	fed42623          	sw	a3,-20(s0)
800022fe:	fdc42683          	lw	a3,-36(s0)
80002302:	06fe                	sll	a3,a3,0x1f
80002304:	fd842603          	lw	a2,-40(s0)
80002308:	00165713          	srl	a4,a2,0x1
8000230c:	8f55                	or	a4,a4,a3
8000230e:	fdc42683          	lw	a3,-36(s0)
80002312:	0016d793          	srl	a5,a3,0x1
80002316:	fe842683          	lw	a3,-24(s0)
8000231a:	01e69393          	sll	t2,a3,0x1e
8000231e:	4301                	li	t1,0
80002320:	00676e33          	or	t3,a4,t1
80002324:	0077eeb3          	or	t4,a5,t2
80002328:	8772                	mv	a4,t3
8000232a:	87f6                	mv	a5,t4
8000232c:	853a                	mv	a0,a4
8000232e:	85be                	mv	a1,a5
80002330:	5432                	lw	s0,44(sp)
80002332:	6145                	add	sp,sp,48
80002334:	8082                	ret

80002336 <insn_len>:
80002336:	1101                	add	sp,sp,-32
80002338:	ce22                	sw	s0,28(sp)
8000233a:	1000                	add	s0,sp,32
8000233c:	fea42623          	sw	a0,-20(s0)
80002340:	fec42783          	lw	a5,-20(s0)
80002344:	0007d783          	lhu	a5,0(a5)
80002348:	8b8d                	and	a5,a5,3
8000234a:	c399                	beqz	a5,80002350 <insn_len+0x1a>
8000234c:	4791                	li	a5,4
8000234e:	a011                	j	80002352 <insn_len+0x1c>
80002350:	4789                	li	a5,2
80002352:	853e                	mv	a0,a5
80002354:	4472                	lw	s0,28(sp)
80002356:	6105                	add	sp,sp,32
80002358:	8082                	ret

8000235a <syscall>:
8000235a:	7175                	add	sp,sp,-144
8000235c:	c722                	sw	s0,140(sp)
8000235e:	0900                	add	s0,sp,144
80002360:	f8a42623          	sw	a0,-116(s0)
80002364:	f8b42423          	sw	a1,-120(s0)
80002368:	f8c42223          	sw	a2,-124(s0)
8000236c:	f8d42023          	sw	a3,-128(s0)
80002370:	ff040793          	add	a5,s0,-16
80002374:	f6f42e23          	sw	a5,-132(s0)
80002378:	f7c42783          	lw	a5,-132(s0)
8000237c:	fa078793          	add	a5,a5,-96
80002380:	03f78793          	add	a5,a5,63
80002384:	8399                	srl	a5,a5,0x6
80002386:	079a                	sll	a5,a5,0x6
80002388:	f8c42703          	lw	a4,-116(s0)
8000238c:	c398                	sw	a4,0(a5)
8000238e:	f8842703          	lw	a4,-120(s0)
80002392:	c3d8                	sw	a4,4(a5)
80002394:	f8442703          	lw	a4,-124(s0)
80002398:	c798                	sw	a4,8(a5)
8000239a:	f8042703          	lw	a4,-128(s0)
8000239e:	c7d8                	sw	a4,12(a5)
800023a0:	873e                	mv	a4,a5
800023a2:	883a                	mv	a6,a4
800023a4:	4881                	li	a7,0
800023a6:	fffff717          	auipc	a4,0xfffff
800023aa:	c5a70713          	add	a4,a4,-934 # 80001000 <tohost>
800023ae:	01072023          	sw	a6,0(a4)
800023b2:	01172223          	sw	a7,4(a4)
800023b6:	0001                	nop
800023b8:	fffff717          	auipc	a4,0xfffff
800023bc:	c8870713          	add	a4,a4,-888 # 80001040 <fromhost>
800023c0:	4310                	lw	a2,0(a4)
800023c2:	4354                	lw	a3,4(a4)
800023c4:	8732                	mv	a4,a2
800023c6:	8f55                	or	a4,a4,a3
800023c8:	db65                	beqz	a4,800023b8 <syscall+0x5e>
800023ca:	fffff717          	auipc	a4,0xfffff
800023ce:	c7670713          	add	a4,a4,-906 # 80001040 <fromhost>
800023d2:	4601                	li	a2,0
800023d4:	4681                	li	a3,0
800023d6:	c310                	sw	a2,0(a4)
800023d8:	c354                	sw	a3,4(a4)
800023da:	439c                	lw	a5,0(a5)
800023dc:	853e                	mv	a0,a5
800023de:	443a                	lw	s0,140(sp)
800023e0:	6149                	add	sp,sp,144
800023e2:	8082                	ret

800023e4 <setStats>:
800023e4:	7139                	add	sp,sp,-64
800023e6:	de22                	sw	s0,60(sp)
800023e8:	0080                	add	s0,sp,64
800023ea:	fca42623          	sw	a0,-52(s0)
800023ee:	fe042223          	sw	zero,-28(s0)
800023f2:	fe442703          	lw	a4,-28(s0)
800023f6:	4785                	li	a5,1
800023f8:	fee7cde3          	blt	a5,a4,800023f2 <setStats+0xe>
800023fc:	b00027f3          	csrr	a5,mcycle
80002400:	fef42023          	sw	a5,-32(s0)
80002404:	fe042783          	lw	a5,-32(s0)
80002408:	fef42623          	sw	a5,-20(s0)
8000240c:	fcc42783          	lw	a5,-52(s0)
80002410:	ef8d                	bnez	a5,8000244a <setStats+0x66>
80002412:	00006717          	auipc	a4,0x6
80002416:	bee70713          	add	a4,a4,-1042 # 80008000 <counters>
8000241a:	fe442783          	lw	a5,-28(s0)
8000241e:	078a                	sll	a5,a5,0x2
80002420:	97ba                	add	a5,a5,a4
80002422:	439c                	lw	a5,0(a5)
80002424:	fec42703          	lw	a4,-20(s0)
80002428:	40f707b3          	sub	a5,a4,a5
8000242c:	fef42623          	sw	a5,-20(s0)
80002430:	00006717          	auipc	a4,0x6
80002434:	bd870713          	add	a4,a4,-1064 # 80008008 <counter_names>
80002438:	fe442783          	lw	a5,-28(s0)
8000243c:	078a                	sll	a5,a5,0x2
8000243e:	97ba                	add	a5,a5,a4
80002440:	00002717          	auipc	a4,0x2
80002444:	84070713          	add	a4,a4,-1984 # 80003c80 <__eqdf2+0xa0>
80002448:	c398                	sw	a4,0(a5)
8000244a:	fe442783          	lw	a5,-28(s0)
8000244e:	00178713          	add	a4,a5,1
80002452:	fee42223          	sw	a4,-28(s0)
80002456:	00006717          	auipc	a4,0x6
8000245a:	baa70713          	add	a4,a4,-1110 # 80008000 <counters>
8000245e:	078a                	sll	a5,a5,0x2
80002460:	97ba                	add	a5,a5,a4
80002462:	fec42703          	lw	a4,-20(s0)
80002466:	c398                	sw	a4,0(a5)
80002468:	fe442703          	lw	a4,-28(s0)
8000246c:	4785                	li	a5,1
8000246e:	fee7cde3          	blt	a5,a4,80002468 <setStats+0x84>
80002472:	b02027f3          	csrr	a5,minstret
80002476:	fcf42e23          	sw	a5,-36(s0)
8000247a:	fdc42783          	lw	a5,-36(s0)
8000247e:	fef42423          	sw	a5,-24(s0)
80002482:	fcc42783          	lw	a5,-52(s0)
80002486:	ef8d                	bnez	a5,800024c0 <setStats+0xdc>
80002488:	00006717          	auipc	a4,0x6
8000248c:	b7870713          	add	a4,a4,-1160 # 80008000 <counters>
80002490:	fe442783          	lw	a5,-28(s0)
80002494:	078a                	sll	a5,a5,0x2
80002496:	97ba                	add	a5,a5,a4
80002498:	439c                	lw	a5,0(a5)
8000249a:	fe842703          	lw	a4,-24(s0)
8000249e:	40f707b3          	sub	a5,a4,a5
800024a2:	fef42423          	sw	a5,-24(s0)
800024a6:	00006717          	auipc	a4,0x6
800024aa:	b6270713          	add	a4,a4,-1182 # 80008008 <counter_names>
800024ae:	fe442783          	lw	a5,-28(s0)
800024b2:	078a                	sll	a5,a5,0x2
800024b4:	97ba                	add	a5,a5,a4
800024b6:	00001717          	auipc	a4,0x1
800024ba:	7d270713          	add	a4,a4,2002 # 80003c88 <__eqdf2+0xa8>
800024be:	c398                	sw	a4,0(a5)
800024c0:	fe442783          	lw	a5,-28(s0)
800024c4:	00178713          	add	a4,a5,1
800024c8:	fee42223          	sw	a4,-28(s0)
800024cc:	00006717          	auipc	a4,0x6
800024d0:	b3470713          	add	a4,a4,-1228 # 80008000 <counters>
800024d4:	078a                	sll	a5,a5,0x2
800024d6:	97ba                	add	a5,a5,a4
800024d8:	fe842703          	lw	a4,-24(s0)
800024dc:	c398                	sw	a4,0(a5)
800024de:	0001                	nop
800024e0:	5472                	lw	s0,60(sp)
800024e2:	6121                	add	sp,sp,64
800024e4:	8082                	ret

800024e6 <getStats>:
800024e6:	1101                	add	sp,sp,-32
800024e8:	ce22                	sw	s0,28(sp)
800024ea:	1000                	add	s0,sp,32
800024ec:	fea42623          	sw	a0,-20(s0)
800024f0:	00006717          	auipc	a4,0x6
800024f4:	b1070713          	add	a4,a4,-1264 # 80008000 <counters>
800024f8:	fec42783          	lw	a5,-20(s0)
800024fc:	078a                	sll	a5,a5,0x2
800024fe:	97ba                	add	a5,a5,a4
80002500:	439c                	lw	a5,0(a5)
80002502:	853e                	mv	a0,a5
80002504:	4472                	lw	s0,28(sp)
80002506:	6105                	add	sp,sp,32
80002508:	8082                	ret

8000250a <tohost_exit>:
8000250a:	1101                	add	sp,sp,-32
8000250c:	ce22                	sw	s0,28(sp)
8000250e:	1000                	add	s0,sp,32
80002510:	fea42623          	sw	a0,-20(s0)
80002514:	fec42583          	lw	a1,-20(s0)
80002518:	882e                	mv	a6,a1
8000251a:	4881                	li	a7,0
8000251c:	00f85693          	srl	a3,a6,0xf
80002520:	01181613          	sll	a2,a6,0x11
80002524:	01069593          	sll	a1,a3,0x10
80002528:	01065713          	srl	a4,a2,0x10
8000252c:	8f4d                	or	a4,a4,a1
8000252e:	0106d793          	srl	a5,a3,0x10
80002532:	00176313          	or	t1,a4,1
80002536:	0007e393          	or	t2,a5,0
8000253a:	fffff797          	auipc	a5,0xfffff
8000253e:	ac678793          	add	a5,a5,-1338 # 80001000 <tohost>
80002542:	0067a023          	sw	t1,0(a5)
80002546:	0077a223          	sw	t2,4(a5)
8000254a:	0001                	nop
8000254c:	a001                	j	8000254c <tohost_exit+0x42>

8000254e <handle_trap>:
8000254e:	1101                	add	sp,sp,-32
80002550:	ce06                	sw	ra,28(sp)
80002552:	cc22                	sw	s0,24(sp)
80002554:	1000                	add	s0,sp,32
80002556:	fea42623          	sw	a0,-20(s0)
8000255a:	feb42423          	sw	a1,-24(s0)
8000255e:	fec42223          	sw	a2,-28(s0)
80002562:	53900513          	li	a0,1337
80002566:	3755                	jal	8000250a <tohost_exit>

80002568 <exit>:
80002568:	1101                	add	sp,sp,-32
8000256a:	ce06                	sw	ra,28(sp)
8000256c:	cc22                	sw	s0,24(sp)
8000256e:	1000                	add	s0,sp,32
80002570:	fea42623          	sw	a0,-20(s0)
80002574:	fec42783          	lw	a5,-20(s0)
80002578:	853e                	mv	a0,a5
8000257a:	3f41                	jal	8000250a <tohost_exit>

8000257c <abort>:
8000257c:	1141                	add	sp,sp,-16
8000257e:	c606                	sw	ra,12(sp)
80002580:	c422                	sw	s0,8(sp)
80002582:	0800                	add	s0,sp,16
80002584:	08600513          	li	a0,134
80002588:	37c5                	jal	80002568 <exit>

8000258a <printstr>:
8000258a:	1101                	add	sp,sp,-32
8000258c:	ce06                	sw	ra,28(sp)
8000258e:	cc22                	sw	s0,24(sp)
80002590:	ca26                	sw	s1,20(sp)
80002592:	1000                	add	s0,sp,32
80002594:	fea42623          	sw	a0,-20(s0)
80002598:	fec42483          	lw	s1,-20(s0)
8000259c:	fec42503          	lw	a0,-20(s0)
800025a0:	369000ef          	jal	80003108 <strlen>
800025a4:	87aa                	mv	a5,a0
800025a6:	86be                	mv	a3,a5
800025a8:	8626                	mv	a2,s1
800025aa:	4585                	li	a1,1
800025ac:	04000513          	li	a0,64
800025b0:	336d                	jal	8000235a <syscall>
800025b2:	0001                	nop
800025b4:	40f2                	lw	ra,28(sp)
800025b6:	4462                	lw	s0,24(sp)
800025b8:	44d2                	lw	s1,20(sp)
800025ba:	6105                	add	sp,sp,32
800025bc:	8082                	ret

800025be <thread_entry>:
800025be:	1101                	add	sp,sp,-32
800025c0:	ce22                	sw	s0,28(sp)
800025c2:	1000                	add	s0,sp,32
800025c4:	fea42623          	sw	a0,-20(s0)
800025c8:	feb42423          	sw	a1,-24(s0)
800025cc:	0001                	nop
800025ce:	fec42783          	lw	a5,-20(s0)
800025d2:	fff5                	bnez	a5,800025ce <thread_entry+0x10>
800025d4:	0001                	nop
800025d6:	0001                	nop
800025d8:	4472                	lw	s0,28(sp)
800025da:	6105                	add	sp,sp,32
800025dc:	8082                	ret
800025de:	1101                	add	sp,sp,-32
800025e0:	ce06                	sw	ra,28(sp)
800025e2:	cc22                	sw	s0,24(sp)
800025e4:	1000                	add	s0,sp,32
800025e6:	fea42623          	sw	a0,-20(s0)
800025ea:	feb42423          	sw	a1,-24(s0)
800025ee:	00001517          	auipc	a0,0x1
800025f2:	6a650513          	add	a0,a0,1702 # 80003c94 <__eqdf2+0xb4>
800025f6:	3f51                	jal	8000258a <printstr>
800025f8:	57fd                	li	a5,-1
800025fa:	853e                	mv	a0,a5
800025fc:	40f2                	lw	ra,28(sp)
800025fe:	4462                	lw	s0,24(sp)
80002600:	6105                	add	sp,sp,32
80002602:	8082                	ret

80002604 <init_tls>:
80002604:	1101                	add	sp,sp,-32
80002606:	ce06                	sw	ra,28(sp)
80002608:	cc22                	sw	s0,24(sp)
8000260a:	1000                	add	s0,sp,32
8000260c:	00006717          	auipc	a4,0x6
80002610:	a0470713          	add	a4,a4,-1532 # 80008010 <_tdata_begin>
80002614:	00006797          	auipc	a5,0x6
80002618:	9fc78793          	add	a5,a5,-1540 # 80008010 <_tdata_begin>
8000261c:	40f707b3          	sub	a5,a4,a5
80002620:	fef42623          	sw	a5,-20(s0)
80002624:	8792                	mv	a5,tp
80002626:	fec42603          	lw	a2,-20(s0)
8000262a:	00006597          	auipc	a1,0x6
8000262e:	9e658593          	add	a1,a1,-1562 # 80008010 <_tdata_begin>
80002632:	853e                	mv	a0,a5
80002634:	161000ef          	jal	80002f94 <memcpy>
80002638:	88418713          	add	a4,gp,-1916 # 80008084 <_tbss_end>
8000263c:	00006797          	auipc	a5,0x6
80002640:	9d478793          	add	a5,a5,-1580 # 80008010 <_tdata_begin>
80002644:	40f707b3          	sub	a5,a4,a5
80002648:	fef42423          	sw	a5,-24(s0)
8000264c:	8712                	mv	a4,tp
8000264e:	fec42783          	lw	a5,-20(s0)
80002652:	97ba                	add	a5,a5,a4
80002654:	fe842603          	lw	a2,-24(s0)
80002658:	4581                	li	a1,0
8000265a:	853e                	mv	a0,a5
8000265c:	1f1000ef          	jal	8000304c <memset>
80002660:	0001                	nop
80002662:	40f2                	lw	ra,28(sp)
80002664:	4462                	lw	s0,24(sp)
80002666:	6105                	add	sp,sp,32
80002668:	8082                	ret

8000266a <_init>:
8000266a:	7171                	add	sp,sp,-176
8000266c:	d706                	sw	ra,172(sp)
8000266e:	d522                	sw	s0,168(sp)
80002670:	d326                	sw	s1,164(sp)
80002672:	1900                	add	s0,sp,176
80002674:	f4a42e23          	sw	a0,-164(s0)
80002678:	f4b42c23          	sw	a1,-168(s0)
8000267c:	ff040793          	add	a5,s0,-16
80002680:	f4f42a23          	sw	a5,-172(s0)
80002684:	f5442783          	lw	a5,-172(s0)
80002688:	f7078793          	add	a5,a5,-144
8000268c:	03f78793          	add	a5,a5,63
80002690:	8399                	srl	a5,a5,0x6
80002692:	00679493          	sll	s1,a5,0x6
80002696:	37bd                	jal	80002604 <init_tls>
80002698:	f5842583          	lw	a1,-168(s0)
8000269c:	f5c42503          	lw	a0,-164(s0)
800026a0:	3f39                	jal	800025be <thread_entry>
800026a2:	4581                	li	a1,0
800026a4:	4501                	li	a0,0
800026a6:	3aa9                	jal	80002000 <main>
800026a8:	fea42223          	sw	a0,-28(s0)
800026ac:	fe942623          	sw	s1,-20(s0)
800026b0:	fe042423          	sw	zero,-24(s0)
800026b4:	a095                	j	80002718 <_init+0xae>
800026b6:	00006717          	auipc	a4,0x6
800026ba:	94a70713          	add	a4,a4,-1718 # 80008000 <counters>
800026be:	fe842783          	lw	a5,-24(s0)
800026c2:	078a                	sll	a5,a5,0x2
800026c4:	97ba                	add	a5,a5,a4
800026c6:	439c                	lw	a5,0(a5)
800026c8:	c3b9                	beqz	a5,8000270e <_init+0xa4>
800026ca:	00006717          	auipc	a4,0x6
800026ce:	93e70713          	add	a4,a4,-1730 # 80008008 <counter_names>
800026d2:	fe842783          	lw	a5,-24(s0)
800026d6:	078a                	sll	a5,a5,0x2
800026d8:	97ba                	add	a5,a5,a4
800026da:	4390                	lw	a2,0(a5)
800026dc:	00006717          	auipc	a4,0x6
800026e0:	92470713          	add	a4,a4,-1756 # 80008000 <counters>
800026e4:	fe842783          	lw	a5,-24(s0)
800026e8:	078a                	sll	a5,a5,0x2
800026ea:	97ba                	add	a5,a5,a4
800026ec:	439c                	lw	a5,0(a5)
800026ee:	86be                	mv	a3,a5
800026f0:	00001597          	auipc	a1,0x1
800026f4:	5bc58593          	add	a1,a1,1468 # 80003cac <__eqdf2+0xcc>
800026f8:	fec42503          	lw	a0,-20(s0)
800026fc:	7b8000ef          	jal	80002eb4 <sprintf>
80002700:	87aa                	mv	a5,a0
80002702:	873e                	mv	a4,a5
80002704:	fec42783          	lw	a5,-20(s0)
80002708:	97ba                	add	a5,a5,a4
8000270a:	fef42623          	sw	a5,-20(s0)
8000270e:	fe842783          	lw	a5,-24(s0)
80002712:	0785                	add	a5,a5,1
80002714:	fef42423          	sw	a5,-24(s0)
80002718:	fe842703          	lw	a4,-24(s0)
8000271c:	4785                	li	a5,1
8000271e:	f8e7dce3          	bge	a5,a4,800026b6 <_init+0x4c>
80002722:	fec42783          	lw	a5,-20(s0)
80002726:	00f48463          	beq	s1,a5,8000272e <_init+0xc4>
8000272a:	8526                	mv	a0,s1
8000272c:	3db9                	jal	8000258a <printstr>
8000272e:	fe442503          	lw	a0,-28(s0)
80002732:	3d1d                	jal	80002568 <exit>

80002734 <puts>:
80002734:	7179                	add	sp,sp,-48
80002736:	d606                	sw	ra,44(sp)
80002738:	d422                	sw	s0,40(sp)
8000273a:	1800                	add	s0,sp,48
8000273c:	fca42e23          	sw	a0,-36(s0)
80002740:	fdc42783          	lw	a5,-36(s0)
80002744:	fef42623          	sw	a5,-20(s0)
80002748:	a819                	j	8000275e <puts+0x2a>
8000274a:	fec42783          	lw	a5,-20(s0)
8000274e:	00178713          	add	a4,a5,1
80002752:	fee42623          	sw	a4,-20(s0)
80002756:	0007c783          	lbu	a5,0(a5)
8000275a:	853e                	mv	a0,a5
8000275c:	2831                	jal	80002778 <putchar>
8000275e:	fec42783          	lw	a5,-20(s0)
80002762:	0007c783          	lbu	a5,0(a5)
80002766:	f3f5                	bnez	a5,8000274a <puts+0x16>
80002768:	4529                	li	a0,10
8000276a:	2039                	jal	80002778 <putchar>
8000276c:	4781                	li	a5,0
8000276e:	853e                	mv	a0,a5
80002770:	50b2                	lw	ra,44(sp)
80002772:	5422                	lw	s0,40(sp)
80002774:	6145                	add	sp,sp,48
80002776:	8082                	ret

80002778 <putchar>:
80002778:	1101                	add	sp,sp,-32
8000277a:	ce06                	sw	ra,28(sp)
8000277c:	cc22                	sw	s0,24(sp)
8000277e:	1000                	add	s0,sp,32
80002780:	fea42623          	sw	a0,-20(s0)
80002784:	04022783          	lw	a5,64(tp) # 40 <buflen.1>
80002788:	00178693          	add	a3,a5,1
8000278c:	04d22023          	sw	a3,64(tp) # 40 <buflen.1>
80002790:	fec42703          	lw	a4,-20(s0)
80002794:	0ff77713          	zext.b	a4,a4
80002798:	00020693          	mv	a3,tp
8000279c:	97b6                	add	a5,a5,a3
8000279e:	00e78023          	sb	a4,0(a5)
800027a2:	fec42703          	lw	a4,-20(s0)
800027a6:	47a9                	li	a5,10
800027a8:	00f70863          	beq	a4,a5,800027b8 <putchar+0x40>
800027ac:	04022703          	lw	a4,64(tp) # 40 <buflen.1>
800027b0:	04000793          	li	a5,64
800027b4:	00f71e63          	bne	a4,a5,800027d0 <putchar+0x58>
800027b8:	00020713          	mv	a4,tp
800027bc:	04022783          	lw	a5,64(tp) # 40 <buflen.1>
800027c0:	86be                	mv	a3,a5
800027c2:	863a                	mv	a2,a4
800027c4:	4585                	li	a1,1
800027c6:	04000513          	li	a0,64
800027ca:	3e41                	jal	8000235a <syscall>
800027cc:	04022023          	sw	zero,64(tp) # 40 <buflen.1>
800027d0:	4781                	li	a5,0
800027d2:	853e                	mv	a0,a5
800027d4:	40f2                	lw	ra,28(sp)
800027d6:	4462                	lw	s0,24(sp)
800027d8:	6105                	add	sp,sp,32
800027da:	8082                	ret

800027dc <printhex>:
800027dc:	7139                	add	sp,sp,-64
800027de:	de06                	sw	ra,60(sp)
800027e0:	dc22                	sw	s0,56(sp)
800027e2:	0080                	add	s0,sp,64
800027e4:	fca42423          	sw	a0,-56(s0)
800027e8:	fcb42623          	sw	a1,-52(s0)
800027ec:	fe042623          	sw	zero,-20(s0)
800027f0:	a8ad                	j	8000286a <printhex+0x8e>
800027f2:	fc844583          	lbu	a1,-56(s0)
800027f6:	89bd                	and	a1,a1,15
800027f8:	0ff5f513          	zext.b	a0,a1
800027fc:	fc842583          	lw	a1,-56(s0)
80002800:	00f5f613          	and	a2,a1,15
80002804:	fcc42583          	lw	a1,-52(s0)
80002808:	0005f693          	and	a3,a1,0
8000280c:	85b6                	mv	a1,a3
8000280e:	e991                	bnez	a1,80002822 <printhex+0x46>
80002810:	85b6                	mv	a1,a3
80002812:	e589                	bnez	a1,8000281c <printhex+0x40>
80002814:	8832                	mv	a6,a2
80002816:	45a5                	li	a1,9
80002818:	0105e563          	bltu	a1,a6,80002822 <printhex+0x46>
8000281c:	03000593          	li	a1,48
80002820:	a019                	j	80002826 <printhex+0x4a>
80002822:	05700593          	li	a1,87
80002826:	48bd                	li	a7,15
80002828:	fec42803          	lw	a6,-20(s0)
8000282c:	41088833          	sub	a6,a7,a6
80002830:	95aa                	add	a1,a1,a0
80002832:	0ff5f513          	zext.b	a0,a1
80002836:	ff080593          	add	a1,a6,-16
8000283a:	95a2                	add	a1,a1,s0
8000283c:	fea58423          	sb	a0,-24(a1)
80002840:	fcc42583          	lw	a1,-52(s0)
80002844:	05f2                	sll	a1,a1,0x1c
80002846:	fc842503          	lw	a0,-56(s0)
8000284a:	00455713          	srl	a4,a0,0x4
8000284e:	8f4d                	or	a4,a4,a1
80002850:	fcc42583          	lw	a1,-52(s0)
80002854:	0045d793          	srl	a5,a1,0x4
80002858:	fce42423          	sw	a4,-56(s0)
8000285c:	fcf42623          	sw	a5,-52(s0)
80002860:	fec42583          	lw	a1,-20(s0)
80002864:	0585                	add	a1,a1,1
80002866:	feb42623          	sw	a1,-20(s0)
8000286a:	fec42503          	lw	a0,-20(s0)
8000286e:	45bd                	li	a1,15
80002870:	f8a5d1e3          	bge	a1,a0,800027f2 <printhex+0x16>
80002874:	fe040423          	sb	zero,-24(s0)
80002878:	fd840793          	add	a5,s0,-40
8000287c:	853e                	mv	a0,a5
8000287e:	3331                	jal	8000258a <printstr>
80002880:	0001                	nop
80002882:	50f2                	lw	ra,60(sp)
80002884:	5462                	lw	s0,56(sp)
80002886:	6121                	add	sp,sp,64
80002888:	8082                	ret

8000288a <printnum>:
8000288a:	714d                	add	sp,sp,-336
8000288c:	14112623          	sw	ra,332(sp)
80002890:	14812423          	sw	s0,328(sp)
80002894:	15212223          	sw	s2,324(sp)
80002898:	15312023          	sw	s3,320(sp)
8000289c:	13412e23          	sw	s4,316(sp)
800028a0:	13512c23          	sw	s5,312(sp)
800028a4:	13612a23          	sw	s6,308(sp)
800028a8:	13712823          	sw	s7,304(sp)
800028ac:	0a80                	add	s0,sp,336
800028ae:	eca42623          	sw	a0,-308(s0)
800028b2:	ecb42423          	sw	a1,-312(s0)
800028b6:	ecc42023          	sw	a2,-320(s0)
800028ba:	ecd42223          	sw	a3,-316(s0)
800028be:	eae42e23          	sw	a4,-324(s0)
800028c2:	eaf42c23          	sw	a5,-328(s0)
800028c6:	eb042a23          	sw	a6,-332(s0)
800028ca:	fc042e23          	sw	zero,-36(s0)
800028ce:	ebc42783          	lw	a5,-324(s0)
800028d2:	8b3e                	mv	s6,a5
800028d4:	4b81                	li	s7,0
800028d6:	ec042703          	lw	a4,-320(s0)
800028da:	ec442783          	lw	a5,-316(s0)
800028de:	865a                	mv	a2,s6
800028e0:	86de                	mv	a3,s7
800028e2:	853a                	mv	a0,a4
800028e4:	85be                	mv	a1,a5
800028e6:	6ab000ef          	jal	80003790 <__umoddi3>
800028ea:	872a                	mv	a4,a0
800028ec:	87ae                	mv	a5,a1
800028ee:	863a                	mv	a2,a4
800028f0:	86be                	mv	a3,a5
800028f2:	fdc42783          	lw	a5,-36(s0)
800028f6:	00178713          	add	a4,a5,1
800028fa:	fce42e23          	sw	a4,-36(s0)
800028fe:	8732                	mv	a4,a2
80002900:	078a                	sll	a5,a5,0x2
80002902:	1781                	add	a5,a5,-32
80002904:	97a2                	add	a5,a5,s0
80002906:	eee7ae23          	sw	a4,-260(a5)
8000290a:	ebc42783          	lw	a5,-324(s0)
8000290e:	893e                	mv	s2,a5
80002910:	4981                	li	s3,0
80002912:	ec442783          	lw	a5,-316(s0)
80002916:	874e                	mv	a4,s3
80002918:	02e7ef63          	bltu	a5,a4,80002956 <printnum+0xcc>
8000291c:	ec442783          	lw	a5,-316(s0)
80002920:	874e                	mv	a4,s3
80002922:	00e79763          	bne	a5,a4,80002930 <printnum+0xa6>
80002926:	ec042783          	lw	a5,-320(s0)
8000292a:	874a                	mv	a4,s2
8000292c:	02e7e563          	bltu	a5,a4,80002956 <printnum+0xcc>
80002930:	ebc42783          	lw	a5,-324(s0)
80002934:	8a3e                	mv	s4,a5
80002936:	4a81                	li	s5,0
80002938:	8652                	mv	a2,s4
8000293a:	86d6                	mv	a3,s5
8000293c:	ec042503          	lw	a0,-320(s0)
80002940:	ec442583          	lw	a1,-316(s0)
80002944:	1bd000ef          	jal	80003300 <__udivdi3>
80002948:	872a                	mv	a4,a0
8000294a:	87ae                	mv	a5,a1
8000294c:	ece42023          	sw	a4,-320(s0)
80002950:	ecf42223          	sw	a5,-316(s0)
80002954:	bfad                	j	800028ce <printnum+0x44>
80002956:	0001                	nop
80002958:	a801                	j	80002968 <printnum+0xde>
8000295a:	ecc42783          	lw	a5,-308(s0)
8000295e:	ec842583          	lw	a1,-312(s0)
80002962:	eb442503          	lw	a0,-332(s0)
80002966:	9782                	jalr	a5
80002968:	eb842783          	lw	a5,-328(s0)
8000296c:	fff78713          	add	a4,a5,-1
80002970:	eae42c23          	sw	a4,-328(s0)
80002974:	fdc42703          	lw	a4,-36(s0)
80002978:	fef741e3          	blt	a4,a5,8000295a <printnum+0xd0>
8000297c:	a83d                	j	800029ba <printnum+0x130>
8000297e:	fdc42783          	lw	a5,-36(s0)
80002982:	078a                	sll	a5,a5,0x2
80002984:	1781                	add	a5,a5,-32
80002986:	97a2                	add	a5,a5,s0
80002988:	efc7a703          	lw	a4,-260(a5)
8000298c:	fdc42783          	lw	a5,-36(s0)
80002990:	078a                	sll	a5,a5,0x2
80002992:	1781                	add	a5,a5,-32
80002994:	97a2                	add	a5,a5,s0
80002996:	efc7a683          	lw	a3,-260(a5)
8000299a:	47a5                	li	a5,9
8000299c:	00d7f563          	bgeu	a5,a3,800029a6 <printnum+0x11c>
800029a0:	05700793          	li	a5,87
800029a4:	a019                	j	800029aa <printnum+0x120>
800029a6:	03000793          	li	a5,48
800029aa:	97ba                	add	a5,a5,a4
800029ac:	873e                	mv	a4,a5
800029ae:	ecc42783          	lw	a5,-308(s0)
800029b2:	ec842583          	lw	a1,-312(s0)
800029b6:	853a                	mv	a0,a4
800029b8:	9782                	jalr	a5
800029ba:	fdc42783          	lw	a5,-36(s0)
800029be:	fff78713          	add	a4,a5,-1
800029c2:	fce42e23          	sw	a4,-36(s0)
800029c6:	faf04ce3          	bgtz	a5,8000297e <printnum+0xf4>
800029ca:	0001                	nop
800029cc:	0001                	nop
800029ce:	14c12083          	lw	ra,332(sp)
800029d2:	14812403          	lw	s0,328(sp)
800029d6:	14412903          	lw	s2,324(sp)
800029da:	14012983          	lw	s3,320(sp)
800029de:	13c12a03          	lw	s4,316(sp)
800029e2:	13812a83          	lw	s5,312(sp)
800029e6:	13412b03          	lw	s6,308(sp)
800029ea:	13012b83          	lw	s7,304(sp)
800029ee:	6171                	add	sp,sp,336
800029f0:	8082                	ret

800029f2 <getuint>:
800029f2:	1101                	add	sp,sp,-32
800029f4:	ce22                	sw	s0,28(sp)
800029f6:	1000                	add	s0,sp,32
800029f8:	fea42623          	sw	a0,-20(s0)
800029fc:	feb42423          	sw	a1,-24(s0)
80002a00:	fe842603          	lw	a2,-24(s0)
80002a04:	4685                	li	a3,1
80002a06:	00c6df63          	bge	a3,a2,80002a24 <getuint+0x32>
80002a0a:	fec42783          	lw	a5,-20(s0)
80002a0e:	439c                	lw	a5,0(a5)
80002a10:	079d                	add	a5,a5,7
80002a12:	9be1                	and	a5,a5,-8
80002a14:	00878693          	add	a3,a5,8
80002a18:	fec42703          	lw	a4,-20(s0)
80002a1c:	c314                	sw	a3,0(a4)
80002a1e:	4398                	lw	a4,0(a5)
80002a20:	43dc                	lw	a5,4(a5)
80002a22:	a81d                	j	80002a58 <getuint+0x66>
80002a24:	fe842683          	lw	a3,-24(s0)
80002a28:	ce89                	beqz	a3,80002a42 <getuint+0x50>
80002a2a:	fec42683          	lw	a3,-20(s0)
80002a2e:	4294                	lw	a3,0(a3)
80002a30:	00468593          	add	a1,a3,4
80002a34:	fec42603          	lw	a2,-20(s0)
80002a38:	c20c                	sw	a1,0(a2)
80002a3a:	4294                	lw	a3,0(a3)
80002a3c:	8736                	mv	a4,a3
80002a3e:	4781                	li	a5,0
80002a40:	a821                	j	80002a58 <getuint+0x66>
80002a42:	fec42683          	lw	a3,-20(s0)
80002a46:	4294                	lw	a3,0(a3)
80002a48:	00468593          	add	a1,a3,4
80002a4c:	fec42603          	lw	a2,-20(s0)
80002a50:	c20c                	sw	a1,0(a2)
80002a52:	4294                	lw	a3,0(a3)
80002a54:	8736                	mv	a4,a3
80002a56:	4781                	li	a5,0
80002a58:	853a                	mv	a0,a4
80002a5a:	85be                	mv	a1,a5
80002a5c:	4472                	lw	s0,28(sp)
80002a5e:	6105                	add	sp,sp,32
80002a60:	8082                	ret

80002a62 <getint>:
80002a62:	1101                	add	sp,sp,-32
80002a64:	ce22                	sw	s0,28(sp)
80002a66:	1000                	add	s0,sp,32
80002a68:	fea42623          	sw	a0,-20(s0)
80002a6c:	feb42423          	sw	a1,-24(s0)
80002a70:	fe842603          	lw	a2,-24(s0)
80002a74:	4685                	li	a3,1
80002a76:	00c6df63          	bge	a3,a2,80002a94 <getint+0x32>
80002a7a:	fec42783          	lw	a5,-20(s0)
80002a7e:	439c                	lw	a5,0(a5)
80002a80:	079d                	add	a5,a5,7
80002a82:	9be1                	and	a5,a5,-8
80002a84:	00878693          	add	a3,a5,8
80002a88:	fec42703          	lw	a4,-20(s0)
80002a8c:	c314                	sw	a3,0(a4)
80002a8e:	4398                	lw	a4,0(a5)
80002a90:	43dc                	lw	a5,4(a5)
80002a92:	a82d                	j	80002acc <getint+0x6a>
80002a94:	fe842683          	lw	a3,-24(s0)
80002a98:	ce91                	beqz	a3,80002ab4 <getint+0x52>
80002a9a:	fec42683          	lw	a3,-20(s0)
80002a9e:	4294                	lw	a3,0(a3)
80002aa0:	00468593          	add	a1,a3,4
80002aa4:	fec42603          	lw	a2,-20(s0)
80002aa8:	c20c                	sw	a1,0(a2)
80002aaa:	4294                	lw	a3,0(a3)
80002aac:	8736                	mv	a4,a3
80002aae:	86fd                	sra	a3,a3,0x1f
80002ab0:	87b6                	mv	a5,a3
80002ab2:	a829                	j	80002acc <getint+0x6a>
80002ab4:	fec42683          	lw	a3,-20(s0)
80002ab8:	4294                	lw	a3,0(a3)
80002aba:	00468593          	add	a1,a3,4
80002abe:	fec42603          	lw	a2,-20(s0)
80002ac2:	c20c                	sw	a1,0(a2)
80002ac4:	4294                	lw	a3,0(a3)
80002ac6:	8736                	mv	a4,a3
80002ac8:	86fd                	sra	a3,a3,0x1f
80002aca:	87b6                	mv	a5,a3
80002acc:	853a                	mv	a0,a4
80002ace:	85be                	mv	a1,a5
80002ad0:	4472                	lw	s0,28(sp)
80002ad2:	6105                	add	sp,sp,32
80002ad4:	8082                	ret

80002ad6 <vprintfmt>:
80002ad6:	715d                	add	sp,sp,-80
80002ad8:	c686                	sw	ra,76(sp)
80002ada:	c4a2                	sw	s0,72(sp)
80002adc:	c2a6                	sw	s1,68(sp)
80002ade:	c0ca                	sw	s2,64(sp)
80002ae0:	0880                	add	s0,sp,80
80002ae2:	faa42e23          	sw	a0,-68(s0)
80002ae6:	fab42c23          	sw	a1,-72(s0)
80002aea:	fac42a23          	sw	a2,-76(s0)
80002aee:	fad42823          	sw	a3,-80(s0)
80002af2:	a831                	j	80002b0e <vprintfmt+0x38>
80002af4:	30048e63          	beqz	s1,80002e10 <vprintfmt+0x33a>
80002af8:	fb442783          	lw	a5,-76(s0)
80002afc:	0785                	add	a5,a5,1
80002afe:	faf42a23          	sw	a5,-76(s0)
80002b02:	fbc42783          	lw	a5,-68(s0)
80002b06:	fb842583          	lw	a1,-72(s0)
80002b0a:	8526                	mv	a0,s1
80002b0c:	9782                	jalr	a5
80002b0e:	fb442783          	lw	a5,-76(s0)
80002b12:	0007c783          	lbu	a5,0(a5)
80002b16:	84be                	mv	s1,a5
80002b18:	02500793          	li	a5,37
80002b1c:	fcf49ce3          	bne	s1,a5,80002af4 <vprintfmt+0x1e>
80002b20:	fb442783          	lw	a5,-76(s0)
80002b24:	0785                	add	a5,a5,1
80002b26:	faf42a23          	sw	a5,-76(s0)
80002b2a:	fb442783          	lw	a5,-76(s0)
80002b2e:	fcf42823          	sw	a5,-48(s0)
80002b32:	02000793          	li	a5,32
80002b36:	fcf40ba3          	sb	a5,-41(s0)
80002b3a:	57fd                	li	a5,-1
80002b3c:	fcf42e23          	sw	a5,-36(s0)
80002b40:	57fd                	li	a5,-1
80002b42:	fcf42c23          	sw	a5,-40(s0)
80002b46:	fe042023          	sw	zero,-32(s0)
80002b4a:	fc042623          	sw	zero,-52(s0)
80002b4e:	fb442783          	lw	a5,-76(s0)
80002b52:	00178713          	add	a4,a5,1
80002b56:	fae42a23          	sw	a4,-76(s0)
80002b5a:	0007c783          	lbu	a5,0(a5)
80002b5e:	84be                	mv	s1,a5
80002b60:	fdd48793          	add	a5,s1,-35
80002b64:	05500713          	li	a4,85
80002b68:	28f76763          	bltu	a4,a5,80002df6 <vprintfmt+0x320>
80002b6c:	00279713          	sll	a4,a5,0x2
80002b70:	00001797          	auipc	a5,0x1
80002b74:	15078793          	add	a5,a5,336 # 80003cc0 <__eqdf2+0xe0>
80002b78:	97ba                	add	a5,a5,a4
80002b7a:	4398                	lw	a4,0(a5)
80002b7c:	00001797          	auipc	a5,0x1
80002b80:	14478793          	add	a5,a5,324 # 80003cc0 <__eqdf2+0xe0>
80002b84:	97ba                	add	a5,a5,a4
80002b86:	8782                	jr	a5
80002b88:	02d00793          	li	a5,45
80002b8c:	fcf40ba3          	sb	a5,-41(s0)
80002b90:	bf7d                	j	80002b4e <vprintfmt+0x78>
80002b92:	03000793          	li	a5,48
80002b96:	fcf40ba3          	sb	a5,-41(s0)
80002b9a:	bf55                	j	80002b4e <vprintfmt+0x78>
80002b9c:	fc042c23          	sw	zero,-40(s0)
80002ba0:	fd842703          	lw	a4,-40(s0)
80002ba4:	87ba                	mv	a5,a4
80002ba6:	078a                	sll	a5,a5,0x2
80002ba8:	97ba                	add	a5,a5,a4
80002baa:	0786                	sll	a5,a5,0x1
80002bac:	97a6                	add	a5,a5,s1
80002bae:	fd078793          	add	a5,a5,-48
80002bb2:	fcf42c23          	sw	a5,-40(s0)
80002bb6:	fb442783          	lw	a5,-76(s0)
80002bba:	0007c783          	lbu	a5,0(a5)
80002bbe:	84be                	mv	s1,a5
80002bc0:	02f00793          	li	a5,47
80002bc4:	0497d163          	bge	a5,s1,80002c06 <vprintfmt+0x130>
80002bc8:	03900793          	li	a5,57
80002bcc:	0297cd63          	blt	a5,s1,80002c06 <vprintfmt+0x130>
80002bd0:	fb442783          	lw	a5,-76(s0)
80002bd4:	0785                	add	a5,a5,1
80002bd6:	faf42a23          	sw	a5,-76(s0)
80002bda:	b7d9                	j	80002ba0 <vprintfmt+0xca>
80002bdc:	fb042783          	lw	a5,-80(s0)
80002be0:	00478713          	add	a4,a5,4
80002be4:	fae42823          	sw	a4,-80(s0)
80002be8:	439c                	lw	a5,0(a5)
80002bea:	fcf42c23          	sw	a5,-40(s0)
80002bee:	a829                	j	80002c08 <vprintfmt+0x132>
80002bf0:	fdc42783          	lw	a5,-36(s0)
80002bf4:	f407dde3          	bgez	a5,80002b4e <vprintfmt+0x78>
80002bf8:	fc042e23          	sw	zero,-36(s0)
80002bfc:	bf89                	j	80002b4e <vprintfmt+0x78>
80002bfe:	4785                	li	a5,1
80002c00:	fcf42623          	sw	a5,-52(s0)
80002c04:	b7a9                	j	80002b4e <vprintfmt+0x78>
80002c06:	0001                	nop
80002c08:	fdc42783          	lw	a5,-36(s0)
80002c0c:	f407d1e3          	bgez	a5,80002b4e <vprintfmt+0x78>
80002c10:	fd842783          	lw	a5,-40(s0)
80002c14:	fcf42e23          	sw	a5,-36(s0)
80002c18:	57fd                	li	a5,-1
80002c1a:	fcf42c23          	sw	a5,-40(s0)
80002c1e:	bf05                	j	80002b4e <vprintfmt+0x78>
80002c20:	fe042783          	lw	a5,-32(s0)
80002c24:	0785                	add	a5,a5,1
80002c26:	fef42023          	sw	a5,-32(s0)
80002c2a:	b715                	j	80002b4e <vprintfmt+0x78>
80002c2c:	fb042783          	lw	a5,-80(s0)
80002c30:	00478713          	add	a4,a5,4
80002c34:	fae42823          	sw	a4,-80(s0)
80002c38:	4398                	lw	a4,0(a5)
80002c3a:	fbc42783          	lw	a5,-68(s0)
80002c3e:	fb842583          	lw	a1,-72(s0)
80002c42:	853a                	mv	a0,a4
80002c44:	9782                	jalr	a5
80002c46:	a2e1                	j	80002e0e <vprintfmt+0x338>
80002c48:	fb042783          	lw	a5,-80(s0)
80002c4c:	00478713          	add	a4,a5,4
80002c50:	fae42823          	sw	a4,-80(s0)
80002c54:	0007a903          	lw	s2,0(a5)
80002c58:	00091663          	bnez	s2,80002c64 <vprintfmt+0x18e>
80002c5c:	00001917          	auipc	s2,0x1
80002c60:	05c90913          	add	s2,s2,92 # 80003cb8 <__eqdf2+0xd8>
80002c64:	fdc42783          	lw	a5,-36(s0)
80002c68:	06f05363          	blez	a5,80002cce <vprintfmt+0x1f8>
80002c6c:	fd744703          	lbu	a4,-41(s0)
80002c70:	02d00793          	li	a5,45
80002c74:	04f70d63          	beq	a4,a5,80002cce <vprintfmt+0x1f8>
80002c78:	fdc42483          	lw	s1,-36(s0)
80002c7c:	fd842783          	lw	a5,-40(s0)
80002c80:	85be                	mv	a1,a5
80002c82:	854a                	mv	a0,s2
80002c84:	21c1                	jal	80003144 <strnlen>
80002c86:	87aa                	mv	a5,a0
80002c88:	40f487b3          	sub	a5,s1,a5
80002c8c:	fcf42e23          	sw	a5,-36(s0)
80002c90:	a831                	j	80002cac <vprintfmt+0x1d6>
80002c92:	fd744703          	lbu	a4,-41(s0)
80002c96:	fbc42783          	lw	a5,-68(s0)
80002c9a:	fb842583          	lw	a1,-72(s0)
80002c9e:	853a                	mv	a0,a4
80002ca0:	9782                	jalr	a5
80002ca2:	fdc42783          	lw	a5,-36(s0)
80002ca6:	17fd                	add	a5,a5,-1
80002ca8:	fcf42e23          	sw	a5,-36(s0)
80002cac:	fdc42783          	lw	a5,-36(s0)
80002cb0:	fef041e3          	bgtz	a5,80002c92 <vprintfmt+0x1bc>
80002cb4:	a829                	j	80002cce <vprintfmt+0x1f8>
80002cb6:	fbc42783          	lw	a5,-68(s0)
80002cba:	fb842583          	lw	a1,-72(s0)
80002cbe:	8526                	mv	a0,s1
80002cc0:	9782                	jalr	a5
80002cc2:	0905                	add	s2,s2,1
80002cc4:	fdc42783          	lw	a5,-36(s0)
80002cc8:	17fd                	add	a5,a5,-1
80002cca:	fcf42e23          	sw	a5,-36(s0)
80002cce:	00094783          	lbu	a5,0(s2)
80002cd2:	84be                	mv	s1,a5
80002cd4:	c89d                	beqz	s1,80002d0a <vprintfmt+0x234>
80002cd6:	fd842783          	lw	a5,-40(s0)
80002cda:	fc07cee3          	bltz	a5,80002cb6 <vprintfmt+0x1e0>
80002cde:	fd842783          	lw	a5,-40(s0)
80002ce2:	17fd                	add	a5,a5,-1
80002ce4:	fcf42c23          	sw	a5,-40(s0)
80002ce8:	fd842783          	lw	a5,-40(s0)
80002cec:	fc07d5e3          	bgez	a5,80002cb6 <vprintfmt+0x1e0>
80002cf0:	a829                	j	80002d0a <vprintfmt+0x234>
80002cf2:	fbc42783          	lw	a5,-68(s0)
80002cf6:	fb842583          	lw	a1,-72(s0)
80002cfa:	02000513          	li	a0,32
80002cfe:	9782                	jalr	a5
80002d00:	fdc42783          	lw	a5,-36(s0)
80002d04:	17fd                	add	a5,a5,-1
80002d06:	fcf42e23          	sw	a5,-36(s0)
80002d0a:	fdc42783          	lw	a5,-36(s0)
80002d0e:	fef042e3          	bgtz	a5,80002cf2 <vprintfmt+0x21c>
80002d12:	a8f5                	j	80002e0e <vprintfmt+0x338>
80002d14:	fb040793          	add	a5,s0,-80
80002d18:	fe042583          	lw	a1,-32(s0)
80002d1c:	853e                	mv	a0,a5
80002d1e:	3391                	jal	80002a62 <getint>
80002d20:	872a                	mv	a4,a0
80002d22:	87ae                	mv	a5,a1
80002d24:	fee42423          	sw	a4,-24(s0)
80002d28:	fef42623          	sw	a5,-20(s0)
80002d2c:	fe842703          	lw	a4,-24(s0)
80002d30:	fec42783          	lw	a5,-20(s0)
80002d34:	0207df63          	bgez	a5,80002d72 <vprintfmt+0x29c>
80002d38:	fbc42783          	lw	a5,-68(s0)
80002d3c:	fb842583          	lw	a1,-72(s0)
80002d40:	02d00513          	li	a0,45
80002d44:	9782                	jalr	a5
80002d46:	fe842503          	lw	a0,-24(s0)
80002d4a:	fec42583          	lw	a1,-20(s0)
80002d4e:	4701                	li	a4,0
80002d50:	4781                	li	a5,0
80002d52:	40a70633          	sub	a2,a4,a0
80002d56:	8832                	mv	a6,a2
80002d58:	01073833          	sltu	a6,a4,a6
80002d5c:	40b786b3          	sub	a3,a5,a1
80002d60:	410687b3          	sub	a5,a3,a6
80002d64:	86be                	mv	a3,a5
80002d66:	8732                	mv	a4,a2
80002d68:	87b6                	mv	a5,a3
80002d6a:	fee42423          	sw	a4,-24(s0)
80002d6e:	fef42623          	sw	a5,-20(s0)
80002d72:	47a9                	li	a5,10
80002d74:	fef42223          	sw	a5,-28(s0)
80002d78:	a0b9                	j	80002dc6 <vprintfmt+0x2f0>
80002d7a:	47a9                	li	a5,10
80002d7c:	fef42223          	sw	a5,-28(s0)
80002d80:	a80d                	j	80002db2 <vprintfmt+0x2dc>
80002d82:	47a1                	li	a5,8
80002d84:	fef42223          	sw	a5,-28(s0)
80002d88:	a02d                	j	80002db2 <vprintfmt+0x2dc>
80002d8a:	4785                	li	a5,1
80002d8c:	fef42023          	sw	a5,-32(s0)
80002d90:	fbc42783          	lw	a5,-68(s0)
80002d94:	fb842583          	lw	a1,-72(s0)
80002d98:	03000513          	li	a0,48
80002d9c:	9782                	jalr	a5
80002d9e:	fbc42783          	lw	a5,-68(s0)
80002da2:	fb842583          	lw	a1,-72(s0)
80002da6:	07800513          	li	a0,120
80002daa:	9782                	jalr	a5
80002dac:	47c1                	li	a5,16
80002dae:	fef42223          	sw	a5,-28(s0)
80002db2:	fb040793          	add	a5,s0,-80
80002db6:	fe042583          	lw	a1,-32(s0)
80002dba:	853e                	mv	a0,a5
80002dbc:	391d                	jal	800029f2 <getuint>
80002dbe:	fea42423          	sw	a0,-24(s0)
80002dc2:	feb42623          	sw	a1,-20(s0)
80002dc6:	fe442703          	lw	a4,-28(s0)
80002dca:	fd744783          	lbu	a5,-41(s0)
80002dce:	883e                	mv	a6,a5
80002dd0:	fdc42783          	lw	a5,-36(s0)
80002dd4:	fe842603          	lw	a2,-24(s0)
80002dd8:	fec42683          	lw	a3,-20(s0)
80002ddc:	fb842583          	lw	a1,-72(s0)
80002de0:	fbc42503          	lw	a0,-68(s0)
80002de4:	345d                	jal	8000288a <printnum>
80002de6:	a025                	j	80002e0e <vprintfmt+0x338>
80002de8:	fbc42783          	lw	a5,-68(s0)
80002dec:	fb842583          	lw	a1,-72(s0)
80002df0:	8526                	mv	a0,s1
80002df2:	9782                	jalr	a5
80002df4:	a829                	j	80002e0e <vprintfmt+0x338>
80002df6:	fbc42783          	lw	a5,-68(s0)
80002dfa:	fb842583          	lw	a1,-72(s0)
80002dfe:	02500513          	li	a0,37
80002e02:	9782                	jalr	a5
80002e04:	fd042783          	lw	a5,-48(s0)
80002e08:	faf42a23          	sw	a5,-76(s0)
80002e0c:	0001                	nop
80002e0e:	b301                	j	80002b0e <vprintfmt+0x38>
80002e10:	0001                	nop
80002e12:	40b6                	lw	ra,76(sp)
80002e14:	4426                	lw	s0,72(sp)
80002e16:	4496                	lw	s1,68(sp)
80002e18:	4906                	lw	s2,64(sp)
80002e1a:	6161                	add	sp,sp,80
80002e1c:	8082                	ret

80002e1e <printf>:
80002e1e:	715d                	add	sp,sp,-80
80002e20:	d606                	sw	ra,44(sp)
80002e22:	d422                	sw	s0,40(sp)
80002e24:	1800                	add	s0,sp,48
80002e26:	fca42e23          	sw	a0,-36(s0)
80002e2a:	c04c                	sw	a1,4(s0)
80002e2c:	c410                	sw	a2,8(s0)
80002e2e:	c454                	sw	a3,12(s0)
80002e30:	c818                	sw	a4,16(s0)
80002e32:	c85c                	sw	a5,20(s0)
80002e34:	01042c23          	sw	a6,24(s0)
80002e38:	01142e23          	sw	a7,28(s0)
80002e3c:	02040793          	add	a5,s0,32
80002e40:	fcf42c23          	sw	a5,-40(s0)
80002e44:	fd842783          	lw	a5,-40(s0)
80002e48:	1791                	add	a5,a5,-28
80002e4a:	fef42623          	sw	a5,-20(s0)
80002e4e:	fec42783          	lw	a5,-20(s0)
80002e52:	86be                	mv	a3,a5
80002e54:	fdc42603          	lw	a2,-36(s0)
80002e58:	4581                	li	a1,0
80002e5a:	00000517          	auipc	a0,0x0
80002e5e:	91e50513          	add	a0,a0,-1762 # 80002778 <putchar>
80002e62:	3995                	jal	80002ad6 <vprintfmt>
80002e64:	4781                	li	a5,0
80002e66:	853e                	mv	a0,a5
80002e68:	50b2                	lw	ra,44(sp)
80002e6a:	5422                	lw	s0,40(sp)
80002e6c:	6161                	add	sp,sp,80
80002e6e:	8082                	ret

80002e70 <sprintf_putch.0>:
80002e70:	7179                	add	sp,sp,-48
80002e72:	d622                	sw	s0,44(sp)
80002e74:	1800                	add	s0,sp,48
80002e76:	fca42e23          	sw	a0,-36(s0)
80002e7a:	fcb42c23          	sw	a1,-40(s0)
80002e7e:	fc742a23          	sw	t2,-44(s0)
80002e82:	fd842783          	lw	a5,-40(s0)
80002e86:	fef42623          	sw	a5,-20(s0)
80002e8a:	fec42783          	lw	a5,-20(s0)
80002e8e:	439c                	lw	a5,0(a5)
80002e90:	fdc42703          	lw	a4,-36(s0)
80002e94:	0ff77713          	zext.b	a4,a4
80002e98:	00e78023          	sb	a4,0(a5)
80002e9c:	fec42783          	lw	a5,-20(s0)
80002ea0:	439c                	lw	a5,0(a5)
80002ea2:	00178713          	add	a4,a5,1
80002ea6:	fec42783          	lw	a5,-20(s0)
80002eaa:	c398                	sw	a4,0(a5)
80002eac:	0001                	nop
80002eae:	5432                	lw	s0,44(sp)
80002eb0:	6145                	add	sp,sp,48
80002eb2:	8082                	ret

80002eb4 <sprintf>:
80002eb4:	711d                	add	sp,sp,-96
80002eb6:	de06                	sw	ra,60(sp)
80002eb8:	dc22                	sw	s0,56(sp)
80002eba:	0080                	add	s0,sp,64
80002ebc:	fca42623          	sw	a0,-52(s0)
80002ec0:	fcb42423          	sw	a1,-56(s0)
80002ec4:	c410                	sw	a2,8(s0)
80002ec6:	c454                	sw	a3,12(s0)
80002ec8:	c818                	sw	a4,16(s0)
80002eca:	c85c                	sw	a5,20(s0)
80002ecc:	01042c23          	sw	a6,24(s0)
80002ed0:	01142e23          	sw	a7,28(s0)
80002ed4:	02040793          	add	a5,s0,32
80002ed8:	fcf42223          	sw	a5,-60(s0)
80002edc:	fc442783          	lw	a5,-60(s0)
80002ee0:	fef42223          	sw	a5,-28(s0)
80002ee4:	fd440793          	add	a5,s0,-44
80002ee8:	fd440593          	add	a1,s0,-44
80002eec:	00000617          	auipc	a2,0x0
80002ef0:	f8460613          	add	a2,a2,-124 # 80002e70 <sprintf_putch.0>
80002ef4:	777d                	lui	a4,0xfffff
80002ef6:	fff74693          	not	a3,a4
80002efa:	28b01513          	bset	a0,zero,0xb
80002efe:	00a58833          	add	a6,a1,a0
80002f02:	00e87833          	and	a6,a6,a4
80002f06:	3b786813          	or	a6,a6,951
80002f0a:	0107a023          	sw	a6,0(a5)
80002f0e:	9532                	add	a0,a0,a2
80002f10:	8f69                	and	a4,a4,a0
80002f12:	2b776713          	or	a4,a4,695
80002f16:	c3d8                	sw	a4,4(a5)
80002f18:	00d5f733          	and	a4,a1,a3
80002f1c:	01471593          	sll	a1,a4,0x14
80002f20:	00038737          	lui	a4,0x38
80002f24:	39370713          	add	a4,a4,915 # 38393 <buflen.1+0x38353>
80002f28:	8f4d                	or	a4,a4,a1
80002f2a:	c798                	sw	a4,8(a5)
80002f2c:	00d67733          	and	a4,a2,a3
80002f30:	01471693          	sll	a3,a4,0x14
80002f34:	00028737          	lui	a4,0x28
80002f38:	06770713          	add	a4,a4,103 # 28067 <buflen.1+0x28027>
80002f3c:	8f55                	or	a4,a4,a3
80002f3e:	c7d8                	sw	a4,12(a5)
80002f40:	0000100f          	fence.i
80002f44:	fcc42783          	lw	a5,-52(s0)
80002f48:	fef42623          	sw	a5,-20(s0)
80002f4c:	02040793          	add	a5,s0,32
80002f50:	fcf42223          	sw	a5,-60(s0)
80002f54:	fc442783          	lw	a5,-60(s0)
80002f58:	17a1                	add	a5,a5,-24
80002f5a:	fef42423          	sw	a5,-24(s0)
80002f5e:	fe842703          	lw	a4,-24(s0)
80002f62:	fd440793          	add	a5,s0,-44
80002f66:	853e                	mv	a0,a5
80002f68:	fcc40793          	add	a5,s0,-52
80002f6c:	86ba                	mv	a3,a4
80002f6e:	fc842603          	lw	a2,-56(s0)
80002f72:	85be                	mv	a1,a5
80002f74:	368d                	jal	80002ad6 <vprintfmt>
80002f76:	fcc42783          	lw	a5,-52(s0)
80002f7a:	00078023          	sb	zero,0(a5)
80002f7e:	fcc42703          	lw	a4,-52(s0)
80002f82:	fec42783          	lw	a5,-20(s0)
80002f86:	40f707b3          	sub	a5,a4,a5
80002f8a:	853e                	mv	a0,a5
80002f8c:	50f2                	lw	ra,60(sp)
80002f8e:	5462                	lw	s0,56(sp)
80002f90:	6125                	add	sp,sp,96
80002f92:	8082                	ret

80002f94 <memcpy>:
80002f94:	7179                	add	sp,sp,-48
80002f96:	d622                	sw	s0,44(sp)
80002f98:	1800                	add	s0,sp,48
80002f9a:	fca42e23          	sw	a0,-36(s0)
80002f9e:	fcb42c23          	sw	a1,-40(s0)
80002fa2:	fcc42a23          	sw	a2,-44(s0)
80002fa6:	fdc42703          	lw	a4,-36(s0)
80002faa:	fd842783          	lw	a5,-40(s0)
80002fae:	8f5d                	or	a4,a4,a5
80002fb0:	fd442783          	lw	a5,-44(s0)
80002fb4:	8fd9                	or	a5,a5,a4
80002fb6:	8b8d                	and	a5,a5,3
80002fb8:	e3b1                	bnez	a5,80002ffc <memcpy+0x68>
80002fba:	fd842783          	lw	a5,-40(s0)
80002fbe:	fef42623          	sw	a5,-20(s0)
80002fc2:	fdc42783          	lw	a5,-36(s0)
80002fc6:	fef42423          	sw	a5,-24(s0)
80002fca:	a839                	j	80002fe8 <memcpy+0x54>
80002fcc:	fec42703          	lw	a4,-20(s0)
80002fd0:	00470793          	add	a5,a4,4
80002fd4:	fef42623          	sw	a5,-20(s0)
80002fd8:	fe842783          	lw	a5,-24(s0)
80002fdc:	00478693          	add	a3,a5,4
80002fe0:	fed42423          	sw	a3,-24(s0)
80002fe4:	4318                	lw	a4,0(a4)
80002fe6:	c398                	sw	a4,0(a5)
80002fe8:	fdc42703          	lw	a4,-36(s0)
80002fec:	fd442783          	lw	a5,-44(s0)
80002ff0:	97ba                	add	a5,a5,a4
80002ff2:	fe842703          	lw	a4,-24(s0)
80002ff6:	fcf76be3          	bltu	a4,a5,80002fcc <memcpy+0x38>
80002ffa:	a099                	j	80003040 <memcpy+0xac>
80002ffc:	fd842783          	lw	a5,-40(s0)
80003000:	fef42223          	sw	a5,-28(s0)
80003004:	fdc42783          	lw	a5,-36(s0)
80003008:	fef42023          	sw	a5,-32(s0)
8000300c:	a00d                	j	8000302e <memcpy+0x9a>
8000300e:	fe442703          	lw	a4,-28(s0)
80003012:	00170793          	add	a5,a4,1
80003016:	fef42223          	sw	a5,-28(s0)
8000301a:	fe042783          	lw	a5,-32(s0)
8000301e:	00178693          	add	a3,a5,1
80003022:	fed42023          	sw	a3,-32(s0)
80003026:	00074703          	lbu	a4,0(a4)
8000302a:	00e78023          	sb	a4,0(a5)
8000302e:	fdc42703          	lw	a4,-36(s0)
80003032:	fd442783          	lw	a5,-44(s0)
80003036:	97ba                	add	a5,a5,a4
80003038:	fe042703          	lw	a4,-32(s0)
8000303c:	fcf769e3          	bltu	a4,a5,8000300e <memcpy+0x7a>
80003040:	fdc42783          	lw	a5,-36(s0)
80003044:	853e                	mv	a0,a5
80003046:	5432                	lw	s0,44(sp)
80003048:	6145                	add	sp,sp,48
8000304a:	8082                	ret

8000304c <memset>:
8000304c:	7179                	add	sp,sp,-48
8000304e:	d622                	sw	s0,44(sp)
80003050:	1800                	add	s0,sp,48
80003052:	fca42e23          	sw	a0,-36(s0)
80003056:	fcb42c23          	sw	a1,-40(s0)
8000305a:	fcc42a23          	sw	a2,-44(s0)
8000305e:	fdc42703          	lw	a4,-36(s0)
80003062:	fd442783          	lw	a5,-44(s0)
80003066:	8fd9                	or	a5,a5,a4
80003068:	8b8d                	and	a5,a5,3
8000306a:	efb9                	bnez	a5,800030c8 <memset+0x7c>
8000306c:	fd842783          	lw	a5,-40(s0)
80003070:	0ff7f793          	zext.b	a5,a5
80003074:	fef42223          	sw	a5,-28(s0)
80003078:	fe442783          	lw	a5,-28(s0)
8000307c:	07a2                	sll	a5,a5,0x8
8000307e:	fe442703          	lw	a4,-28(s0)
80003082:	8fd9                	or	a5,a5,a4
80003084:	fef42223          	sw	a5,-28(s0)
80003088:	fe442783          	lw	a5,-28(s0)
8000308c:	07c2                	sll	a5,a5,0x10
8000308e:	fe442703          	lw	a4,-28(s0)
80003092:	8fd9                	or	a5,a5,a4
80003094:	fef42223          	sw	a5,-28(s0)
80003098:	fdc42783          	lw	a5,-36(s0)
8000309c:	fef42623          	sw	a5,-20(s0)
800030a0:	a811                	j	800030b4 <memset+0x68>
800030a2:	fec42783          	lw	a5,-20(s0)
800030a6:	00478713          	add	a4,a5,4
800030aa:	fee42623          	sw	a4,-20(s0)
800030ae:	fe442703          	lw	a4,-28(s0)
800030b2:	c398                	sw	a4,0(a5)
800030b4:	fdc42703          	lw	a4,-36(s0)
800030b8:	fd442783          	lw	a5,-44(s0)
800030bc:	97ba                	add	a5,a5,a4
800030be:	fec42703          	lw	a4,-20(s0)
800030c2:	fef760e3          	bltu	a4,a5,800030a2 <memset+0x56>
800030c6:	a81d                	j	800030fc <memset+0xb0>
800030c8:	fdc42783          	lw	a5,-36(s0)
800030cc:	fef42423          	sw	a5,-24(s0)
800030d0:	a829                	j	800030ea <memset+0x9e>
800030d2:	fe842783          	lw	a5,-24(s0)
800030d6:	00178713          	add	a4,a5,1
800030da:	fee42423          	sw	a4,-24(s0)
800030de:	fd842703          	lw	a4,-40(s0)
800030e2:	0ff77713          	zext.b	a4,a4
800030e6:	00e78023          	sb	a4,0(a5)
800030ea:	fdc42703          	lw	a4,-36(s0)
800030ee:	fd442783          	lw	a5,-44(s0)
800030f2:	97ba                	add	a5,a5,a4
800030f4:	fe842703          	lw	a4,-24(s0)
800030f8:	fcf76de3          	bltu	a4,a5,800030d2 <memset+0x86>
800030fc:	fdc42783          	lw	a5,-36(s0)
80003100:	853e                	mv	a0,a5
80003102:	5432                	lw	s0,44(sp)
80003104:	6145                	add	sp,sp,48
80003106:	8082                	ret

80003108 <strlen>:
80003108:	7179                	add	sp,sp,-48
8000310a:	d622                	sw	s0,44(sp)
8000310c:	1800                	add	s0,sp,48
8000310e:	fca42e23          	sw	a0,-36(s0)
80003112:	fdc42783          	lw	a5,-36(s0)
80003116:	fef42623          	sw	a5,-20(s0)
8000311a:	a031                	j	80003126 <strlen+0x1e>
8000311c:	fec42783          	lw	a5,-20(s0)
80003120:	0785                	add	a5,a5,1
80003122:	fef42623          	sw	a5,-20(s0)
80003126:	fec42783          	lw	a5,-20(s0)
8000312a:	0007c783          	lbu	a5,0(a5)
8000312e:	f7fd                	bnez	a5,8000311c <strlen+0x14>
80003130:	fec42703          	lw	a4,-20(s0)
80003134:	fdc42783          	lw	a5,-36(s0)
80003138:	40f707b3          	sub	a5,a4,a5
8000313c:	853e                	mv	a0,a5
8000313e:	5432                	lw	s0,44(sp)
80003140:	6145                	add	sp,sp,48
80003142:	8082                	ret

80003144 <strnlen>:
80003144:	7179                	add	sp,sp,-48
80003146:	d622                	sw	s0,44(sp)
80003148:	1800                	add	s0,sp,48
8000314a:	fca42e23          	sw	a0,-36(s0)
8000314e:	fcb42c23          	sw	a1,-40(s0)
80003152:	fdc42783          	lw	a5,-36(s0)
80003156:	fef42623          	sw	a5,-20(s0)
8000315a:	a031                	j	80003166 <strnlen+0x22>
8000315c:	fec42783          	lw	a5,-20(s0)
80003160:	0785                	add	a5,a5,1
80003162:	fef42623          	sw	a5,-20(s0)
80003166:	fd842783          	lw	a5,-40(s0)
8000316a:	fff78713          	add	a4,a5,-1
8000316e:	fce42c23          	sw	a4,-40(s0)
80003172:	c791                	beqz	a5,8000317e <strnlen+0x3a>
80003174:	fec42783          	lw	a5,-20(s0)
80003178:	0007c783          	lbu	a5,0(a5)
8000317c:	f3e5                	bnez	a5,8000315c <strnlen+0x18>
8000317e:	fec42703          	lw	a4,-20(s0)
80003182:	fdc42783          	lw	a5,-36(s0)
80003186:	40f707b3          	sub	a5,a4,a5
8000318a:	853e                	mv	a0,a5
8000318c:	5432                	lw	s0,44(sp)
8000318e:	6145                	add	sp,sp,48
80003190:	8082                	ret

80003192 <strcmp>:
80003192:	7179                	add	sp,sp,-48
80003194:	d622                	sw	s0,44(sp)
80003196:	1800                	add	s0,sp,48
80003198:	fca42e23          	sw	a0,-36(s0)
8000319c:	fcb42c23          	sw	a1,-40(s0)
800031a0:	fdc42783          	lw	a5,-36(s0)
800031a4:	00178713          	add	a4,a5,1
800031a8:	fce42e23          	sw	a4,-36(s0)
800031ac:	0007c783          	lbu	a5,0(a5)
800031b0:	fef407a3          	sb	a5,-17(s0)
800031b4:	fd842783          	lw	a5,-40(s0)
800031b8:	00178713          	add	a4,a5,1
800031bc:	fce42c23          	sw	a4,-40(s0)
800031c0:	0007c783          	lbu	a5,0(a5)
800031c4:	fef40723          	sb	a5,-18(s0)
800031c8:	fef44783          	lbu	a5,-17(s0)
800031cc:	c799                	beqz	a5,800031da <strcmp+0x48>
800031ce:	fef44703          	lbu	a4,-17(s0)
800031d2:	fee44783          	lbu	a5,-18(s0)
800031d6:	fcf705e3          	beq	a4,a5,800031a0 <strcmp+0xe>
800031da:	fef44703          	lbu	a4,-17(s0)
800031de:	fee44783          	lbu	a5,-18(s0)
800031e2:	40f707b3          	sub	a5,a4,a5
800031e6:	853e                	mv	a0,a5
800031e8:	5432                	lw	s0,44(sp)
800031ea:	6145                	add	sp,sp,48
800031ec:	8082                	ret

800031ee <strcpy>:
800031ee:	7179                	add	sp,sp,-48
800031f0:	d622                	sw	s0,44(sp)
800031f2:	1800                	add	s0,sp,48
800031f4:	fca42e23          	sw	a0,-36(s0)
800031f8:	fcb42c23          	sw	a1,-40(s0)
800031fc:	fdc42783          	lw	a5,-36(s0)
80003200:	fef42623          	sw	a5,-20(s0)
80003204:	0001                	nop
80003206:	fd842703          	lw	a4,-40(s0)
8000320a:	00170793          	add	a5,a4,1
8000320e:	fcf42c23          	sw	a5,-40(s0)
80003212:	fec42783          	lw	a5,-20(s0)
80003216:	00178693          	add	a3,a5,1
8000321a:	fed42623          	sw	a3,-20(s0)
8000321e:	00074703          	lbu	a4,0(a4)
80003222:	00e78023          	sb	a4,0(a5)
80003226:	0007c783          	lbu	a5,0(a5)
8000322a:	fff1                	bnez	a5,80003206 <strcpy+0x18>
8000322c:	fdc42783          	lw	a5,-36(s0)
80003230:	853e                	mv	a0,a5
80003232:	5432                	lw	s0,44(sp)
80003234:	6145                	add	sp,sp,48
80003236:	8082                	ret

80003238 <atol>:
80003238:	7179                	add	sp,sp,-48
8000323a:	d622                	sw	s0,44(sp)
8000323c:	1800                	add	s0,sp,48
8000323e:	fca42e23          	sw	a0,-36(s0)
80003242:	fe042623          	sw	zero,-20(s0)
80003246:	fe042423          	sw	zero,-24(s0)
8000324a:	a031                	j	80003256 <atol+0x1e>
8000324c:	fdc42783          	lw	a5,-36(s0)
80003250:	0785                	add	a5,a5,1
80003252:	fcf42e23          	sw	a5,-36(s0)
80003256:	fdc42783          	lw	a5,-36(s0)
8000325a:	0007c703          	lbu	a4,0(a5)
8000325e:	02000793          	li	a5,32
80003262:	fef705e3          	beq	a4,a5,8000324c <atol+0x14>
80003266:	fdc42783          	lw	a5,-36(s0)
8000326a:	0007c703          	lbu	a4,0(a5)
8000326e:	02d00793          	li	a5,45
80003272:	00f70a63          	beq	a4,a5,80003286 <atol+0x4e>
80003276:	fdc42783          	lw	a5,-36(s0)
8000327a:	0007c703          	lbu	a4,0(a5)
8000327e:	02b00793          	li	a5,43
80003282:	04f71b63          	bne	a4,a5,800032d8 <atol+0xa0>
80003286:	fdc42783          	lw	a5,-36(s0)
8000328a:	0007c783          	lbu	a5,0(a5)
8000328e:	fd378793          	add	a5,a5,-45
80003292:	0017b793          	seqz	a5,a5
80003296:	0ff7f793          	zext.b	a5,a5
8000329a:	fef42423          	sw	a5,-24(s0)
8000329e:	fdc42783          	lw	a5,-36(s0)
800032a2:	0785                	add	a5,a5,1
800032a4:	fcf42e23          	sw	a5,-36(s0)
800032a8:	a805                	j	800032d8 <atol+0xa0>
800032aa:	fec42703          	lw	a4,-20(s0)
800032ae:	87ba                	mv	a5,a4
800032b0:	078a                	sll	a5,a5,0x2
800032b2:	97ba                	add	a5,a5,a4
800032b4:	0786                	sll	a5,a5,0x1
800032b6:	fef42623          	sw	a5,-20(s0)
800032ba:	fdc42783          	lw	a5,-36(s0)
800032be:	00178713          	add	a4,a5,1
800032c2:	fce42e23          	sw	a4,-36(s0)
800032c6:	0007c783          	lbu	a5,0(a5)
800032ca:	fd078793          	add	a5,a5,-48
800032ce:	fec42703          	lw	a4,-20(s0)
800032d2:	97ba                	add	a5,a5,a4
800032d4:	fef42623          	sw	a5,-20(s0)
800032d8:	fdc42783          	lw	a5,-36(s0)
800032dc:	0007c783          	lbu	a5,0(a5)
800032e0:	f7e9                	bnez	a5,800032aa <atol+0x72>
800032e2:	fe842783          	lw	a5,-24(s0)
800032e6:	c791                	beqz	a5,800032f2 <atol+0xba>
800032e8:	fec42783          	lw	a5,-20(s0)
800032ec:	40f007b3          	neg	a5,a5
800032f0:	a019                	j	800032f6 <atol+0xbe>
800032f2:	fec42783          	lw	a5,-20(s0)
800032f6:	853e                	mv	a0,a5
800032f8:	5432                	lw	s0,44(sp)
800032fa:	6145                	add	sp,sp,48
800032fc:	8082                	ret
	...

80003300 <__udivdi3>:
80003300:	00060813          	mv	a6,a2
80003304:	00050893          	mv	a7,a0
80003308:	00058713          	mv	a4,a1
8000330c:	0e069063          	bnez	a3,800033ec <__udivdi3+0xec>
80003310:	12c5fe63          	bgeu	a1,a2,8000344c <__udivdi3+0x14c>
80003314:	000107b7          	lui	a5,0x10
80003318:	1ef66e63          	bltu	a2,a5,80003514 <__udivdi3+0x214>
8000331c:	010007b7          	lui	a5,0x1000
80003320:	01800693          	li	a3,24
80003324:	00f67463          	bgeu	a2,a5,8000332c <__udivdi3+0x2c>
80003328:	01000693          	li	a3,16
8000332c:	800047b7          	lui	a5,0x80004
80003330:	00d65333          	srl	t1,a2,a3
80003334:	e1878793          	add	a5,a5,-488 # 80003e18 <__clz_tab>
80003338:	006787b3          	add	a5,a5,t1
8000333c:	0007c783          	lbu	a5,0(a5)
80003340:	02000313          	li	t1,32
80003344:	00d787b3          	add	a5,a5,a3
80003348:	40f306b3          	sub	a3,t1,a5
8000334c:	00f30c63          	beq	t1,a5,80003364 <__udivdi3+0x64>
80003350:	00d59733          	sll	a4,a1,a3
80003354:	00f557b3          	srl	a5,a0,a5
80003358:	00d61833          	sll	a6,a2,a3
8000335c:	00e7e733          	or	a4,a5,a4
80003360:	00d518b3          	sll	a7,a0,a3
80003364:	01085613          	srl	a2,a6,0x10
80003368:	02c75533          	divu	a0,a4,a2
8000336c:	01081693          	sll	a3,a6,0x10
80003370:	0106d693          	srl	a3,a3,0x10
80003374:	0108d793          	srl	a5,a7,0x10
80003378:	02c77733          	remu	a4,a4,a2
8000337c:	02a685b3          	mul	a1,a3,a0
80003380:	01071713          	sll	a4,a4,0x10
80003384:	00e7e7b3          	or	a5,a5,a4
80003388:	00b7fc63          	bgeu	a5,a1,800033a0 <__udivdi3+0xa0>
8000338c:	00f807b3          	add	a5,a6,a5
80003390:	fff50713          	add	a4,a0,-1
80003394:	0107e463          	bltu	a5,a6,8000339c <__udivdi3+0x9c>
80003398:	3eb7e063          	bltu	a5,a1,80003778 <__udivdi3+0x478>
8000339c:	00070513          	mv	a0,a4
800033a0:	40b787b3          	sub	a5,a5,a1
800033a4:	02c7d733          	divu	a4,a5,a2
800033a8:	01089893          	sll	a7,a7,0x10
800033ac:	0108d893          	srl	a7,a7,0x10
800033b0:	02c7f7b3          	remu	a5,a5,a2
800033b4:	02e686b3          	mul	a3,a3,a4
800033b8:	01079793          	sll	a5,a5,0x10
800033bc:	00f8e8b3          	or	a7,a7,a5
800033c0:	00d8fe63          	bgeu	a7,a3,800033dc <__udivdi3+0xdc>
800033c4:	011808b3          	add	a7,a6,a7
800033c8:	fff70793          	add	a5,a4,-1
800033cc:	0108e663          	bltu	a7,a6,800033d8 <__udivdi3+0xd8>
800033d0:	ffe70713          	add	a4,a4,-2
800033d4:	00d8e463          	bltu	a7,a3,800033dc <__udivdi3+0xdc>
800033d8:	00078713          	mv	a4,a5
800033dc:	01051513          	sll	a0,a0,0x10
800033e0:	00e56533          	or	a0,a0,a4
800033e4:	00000593          	li	a1,0
800033e8:	00008067          	ret
800033ec:	00d5f863          	bgeu	a1,a3,800033fc <__udivdi3+0xfc>
800033f0:	00000593          	li	a1,0
800033f4:	00000513          	li	a0,0
800033f8:	00008067          	ret
800033fc:	000107b7          	lui	a5,0x10
80003400:	1ef6e863          	bltu	a3,a5,800035f0 <__udivdi3+0x2f0>
80003404:	010007b7          	lui	a5,0x1000
80003408:	01800813          	li	a6,24
8000340c:	00f6f463          	bgeu	a3,a5,80003414 <__udivdi3+0x114>
80003410:	01000813          	li	a6,16
80003414:	800047b7          	lui	a5,0x80004
80003418:	0106d733          	srl	a4,a3,a6
8000341c:	e1878793          	add	a5,a5,-488 # 80003e18 <__clz_tab>
80003420:	00e787b3          	add	a5,a5,a4
80003424:	0007c703          	lbu	a4,0(a5)
80003428:	02000793          	li	a5,32
8000342c:	01070733          	add	a4,a4,a6
80003430:	40e78833          	sub	a6,a5,a4
80003434:	1ce79663          	bne	a5,a4,80003600 <__udivdi3+0x300>
80003438:	30b6e463          	bltu	a3,a1,80003740 <__udivdi3+0x440>
8000343c:	00c53533          	sltu	a0,a0,a2
80003440:	00153513          	seqz	a0,a0
80003444:	00000593          	li	a1,0
80003448:	00008067          	ret
8000344c:	0c060c63          	beqz	a2,80003524 <__udivdi3+0x224>
80003450:	000107b7          	lui	a5,0x10
80003454:	2cf67c63          	bgeu	a2,a5,8000372c <__udivdi3+0x42c>
80003458:	10063713          	sltiu	a4,a2,256
8000345c:	00173713          	seqz	a4,a4
80003460:	00371713          	sll	a4,a4,0x3
80003464:	00e656b3          	srl	a3,a2,a4
80003468:	800047b7          	lui	a5,0x80004
8000346c:	e1878793          	add	a5,a5,-488 # 80003e18 <__clz_tab>
80003470:	00d787b3          	add	a5,a5,a3
80003474:	0007c783          	lbu	a5,0(a5)
80003478:	02000693          	li	a3,32
8000347c:	00e787b3          	add	a5,a5,a4
80003480:	40f68eb3          	sub	t4,a3,a5
80003484:	0cf69463          	bne	a3,a5,8000354c <__udivdi3+0x24c>
80003488:	40c587b3          	sub	a5,a1,a2
8000348c:	01065693          	srl	a3,a2,0x10
80003490:	01061613          	sll	a2,a2,0x10
80003494:	01065613          	srl	a2,a2,0x10
80003498:	00100593          	li	a1,1
8000349c:	02d7d533          	divu	a0,a5,a3
800034a0:	0108d713          	srl	a4,a7,0x10
800034a4:	02d7f7b3          	remu	a5,a5,a3
800034a8:	02c50333          	mul	t1,a0,a2
800034ac:	01079793          	sll	a5,a5,0x10
800034b0:	00f767b3          	or	a5,a4,a5
800034b4:	0067fc63          	bgeu	a5,t1,800034cc <__udivdi3+0x1cc>
800034b8:	00f807b3          	add	a5,a6,a5
800034bc:	fff50713          	add	a4,a0,-1
800034c0:	0107e463          	bltu	a5,a6,800034c8 <__udivdi3+0x1c8>
800034c4:	2a67e463          	bltu	a5,t1,8000376c <__udivdi3+0x46c>
800034c8:	00070513          	mv	a0,a4
800034cc:	406787b3          	sub	a5,a5,t1
800034d0:	02d7d733          	divu	a4,a5,a3
800034d4:	01089893          	sll	a7,a7,0x10
800034d8:	0108d893          	srl	a7,a7,0x10
800034dc:	02d7f7b3          	remu	a5,a5,a3
800034e0:	02c70633          	mul	a2,a4,a2
800034e4:	01079793          	sll	a5,a5,0x10
800034e8:	00f8e8b3          	or	a7,a7,a5
800034ec:	00c8fe63          	bgeu	a7,a2,80003508 <__udivdi3+0x208>
800034f0:	011808b3          	add	a7,a6,a7
800034f4:	fff70793          	add	a5,a4,-1
800034f8:	0108e663          	bltu	a7,a6,80003504 <__udivdi3+0x204>
800034fc:	ffe70713          	add	a4,a4,-2
80003500:	00c8e463          	bltu	a7,a2,80003508 <__udivdi3+0x208>
80003504:	00078713          	mv	a4,a5
80003508:	01051513          	sll	a0,a0,0x10
8000350c:	00e56533          	or	a0,a0,a4
80003510:	00008067          	ret
80003514:	10063693          	sltiu	a3,a2,256
80003518:	0016b693          	seqz	a3,a3
8000351c:	00369693          	sll	a3,a3,0x3
80003520:	e0dff06f          	j	8000332c <__udivdi3+0x2c>
80003524:	800047b7          	lui	a5,0x80004
80003528:	00000693          	li	a3,0
8000352c:	e1878793          	add	a5,a5,-488 # 80003e18 <__clz_tab>
80003530:	00d787b3          	add	a5,a5,a3
80003534:	0007c783          	lbu	a5,0(a5)
80003538:	00000713          	li	a4,0
8000353c:	02000693          	li	a3,32
80003540:	00e787b3          	add	a5,a5,a4
80003544:	40f68eb3          	sub	t4,a3,a5
80003548:	f4f680e3          	beq	a3,a5,80003488 <__udivdi3+0x188>
8000354c:	01d61833          	sll	a6,a2,t4
80003550:	00f5d333          	srl	t1,a1,a5
80003554:	01085693          	srl	a3,a6,0x10
80003558:	02d35e33          	divu	t3,t1,a3
8000355c:	01081613          	sll	a2,a6,0x10
80003560:	01d595b3          	sll	a1,a1,t4
80003564:	01065613          	srl	a2,a2,0x10
80003568:	00f557b3          	srl	a5,a0,a5
8000356c:	00b7e7b3          	or	a5,a5,a1
80003570:	0107d713          	srl	a4,a5,0x10
80003574:	01d518b3          	sll	a7,a0,t4
80003578:	02d37333          	remu	t1,t1,a3
8000357c:	03c605b3          	mul	a1,a2,t3
80003580:	01031313          	sll	t1,t1,0x10
80003584:	00676733          	or	a4,a4,t1
80003588:	00b77e63          	bgeu	a4,a1,800035a4 <__udivdi3+0x2a4>
8000358c:	00e80733          	add	a4,a6,a4
80003590:	fffe0513          	add	a0,t3,-1
80003594:	1d076463          	bltu	a4,a6,8000375c <__udivdi3+0x45c>
80003598:	1cb77263          	bgeu	a4,a1,8000375c <__udivdi3+0x45c>
8000359c:	ffee0e13          	add	t3,t3,-2
800035a0:	01070733          	add	a4,a4,a6
800035a4:	40b70733          	sub	a4,a4,a1
800035a8:	02d75533          	divu	a0,a4,a3
800035ac:	01079793          	sll	a5,a5,0x10
800035b0:	0107d793          	srl	a5,a5,0x10
800035b4:	02d77733          	remu	a4,a4,a3
800035b8:	02a60333          	mul	t1,a2,a0
800035bc:	01071713          	sll	a4,a4,0x10
800035c0:	00e7e7b3          	or	a5,a5,a4
800035c4:	0067fe63          	bgeu	a5,t1,800035e0 <__udivdi3+0x2e0>
800035c8:	00f807b3          	add	a5,a6,a5
800035cc:	fff50713          	add	a4,a0,-1
800035d0:	1707ee63          	bltu	a5,a6,8000374c <__udivdi3+0x44c>
800035d4:	1667fc63          	bgeu	a5,t1,8000374c <__udivdi3+0x44c>
800035d8:	ffe50513          	add	a0,a0,-2
800035dc:	010787b3          	add	a5,a5,a6
800035e0:	010e1593          	sll	a1,t3,0x10
800035e4:	406787b3          	sub	a5,a5,t1
800035e8:	00a5e5b3          	or	a1,a1,a0
800035ec:	eb1ff06f          	j	8000349c <__udivdi3+0x19c>
800035f0:	1006b813          	sltiu	a6,a3,256
800035f4:	00183813          	seqz	a6,a6
800035f8:	00381813          	sll	a6,a6,0x3
800035fc:	e19ff06f          	j	80003414 <__udivdi3+0x114>
80003600:	00e65e33          	srl	t3,a2,a4
80003604:	010696b3          	sll	a3,a3,a6
80003608:	00de6e33          	or	t3,t3,a3
8000360c:	00e5d8b3          	srl	a7,a1,a4
80003610:	010e5e93          	srl	t4,t3,0x10
80003614:	03d8d7b3          	divu	a5,a7,t4
80003618:	010e1313          	sll	t1,t3,0x10
8000361c:	010595b3          	sll	a1,a1,a6
80003620:	01035313          	srl	t1,t1,0x10
80003624:	00e55733          	srl	a4,a0,a4
80003628:	00b76733          	or	a4,a4,a1
8000362c:	01075693          	srl	a3,a4,0x10
80003630:	01061633          	sll	a2,a2,a6
80003634:	03d8f8b3          	remu	a7,a7,t4
80003638:	02f305b3          	mul	a1,t1,a5
8000363c:	01089893          	sll	a7,a7,0x10
80003640:	0116e6b3          	or	a3,a3,a7
80003644:	00b6fe63          	bgeu	a3,a1,80003660 <__udivdi3+0x360>
80003648:	00de06b3          	add	a3,t3,a3
8000364c:	fff78893          	add	a7,a5,-1
80003650:	11c6ea63          	bltu	a3,t3,80003764 <__udivdi3+0x464>
80003654:	10b6f863          	bgeu	a3,a1,80003764 <__udivdi3+0x464>
80003658:	ffe78793          	add	a5,a5,-2
8000365c:	01c686b3          	add	a3,a3,t3
80003660:	40b686b3          	sub	a3,a3,a1
80003664:	03d6d5b3          	divu	a1,a3,t4
80003668:	01071713          	sll	a4,a4,0x10
8000366c:	01075713          	srl	a4,a4,0x10
80003670:	03d6f6b3          	remu	a3,a3,t4
80003674:	02b308b3          	mul	a7,t1,a1
80003678:	01069693          	sll	a3,a3,0x10
8000367c:	00d76733          	or	a4,a4,a3
80003680:	01177e63          	bgeu	a4,a7,8000369c <__udivdi3+0x39c>
80003684:	00ee0733          	add	a4,t3,a4
80003688:	fff58693          	add	a3,a1,-1
8000368c:	0dc76463          	bltu	a4,t3,80003754 <__udivdi3+0x454>
80003690:	0d177263          	bgeu	a4,a7,80003754 <__udivdi3+0x454>
80003694:	ffe58593          	add	a1,a1,-2
80003698:	01c70733          	add	a4,a4,t3
8000369c:	01079793          	sll	a5,a5,0x10
800036a0:	00010eb7          	lui	t4,0x10
800036a4:	00b7e7b3          	or	a5,a5,a1
800036a8:	fffe8693          	add	a3,t4,-1 # ffff <buflen.1+0xffbf>
800036ac:	00d7f5b3          	and	a1,a5,a3
800036b0:	0107d313          	srl	t1,a5,0x10
800036b4:	00d676b3          	and	a3,a2,a3
800036b8:	01065613          	srl	a2,a2,0x10
800036bc:	02d58e33          	mul	t3,a1,a3
800036c0:	41170733          	sub	a4,a4,a7
800036c4:	02d306b3          	mul	a3,t1,a3
800036c8:	010e5893          	srl	a7,t3,0x10
800036cc:	02c585b3          	mul	a1,a1,a2
800036d0:	00d585b3          	add	a1,a1,a3
800036d4:	00b885b3          	add	a1,a7,a1
800036d8:	02c30333          	mul	t1,t1,a2
800036dc:	00d5f463          	bgeu	a1,a3,800036e4 <__udivdi3+0x3e4>
800036e0:	01d30333          	add	t1,t1,t4
800036e4:	0105d693          	srl	a3,a1,0x10
800036e8:	006686b3          	add	a3,a3,t1
800036ec:	02d76a63          	bltu	a4,a3,80003720 <__udivdi3+0x420>
800036f0:	00d70863          	beq	a4,a3,80003700 <__udivdi3+0x400>
800036f4:	00078513          	mv	a0,a5
800036f8:	00000593          	li	a1,0
800036fc:	00008067          	ret
80003700:	000106b7          	lui	a3,0x10
80003704:	fff68693          	add	a3,a3,-1 # ffff <buflen.1+0xffbf>
80003708:	00d5f733          	and	a4,a1,a3
8000370c:	01071713          	sll	a4,a4,0x10
80003710:	00de7e33          	and	t3,t3,a3
80003714:	01051533          	sll	a0,a0,a6
80003718:	01c70733          	add	a4,a4,t3
8000371c:	fce57ce3          	bgeu	a0,a4,800036f4 <__udivdi3+0x3f4>
80003720:	fff78513          	add	a0,a5,-1
80003724:	00000593          	li	a1,0
80003728:	00008067          	ret
8000372c:	010007b7          	lui	a5,0x1000
80003730:	04f67a63          	bgeu	a2,a5,80003784 <__udivdi3+0x484>
80003734:	01065693          	srl	a3,a2,0x10
80003738:	01000713          	li	a4,16
8000373c:	d2dff06f          	j	80003468 <__udivdi3+0x168>
80003740:	00000593          	li	a1,0
80003744:	00100513          	li	a0,1
80003748:	00008067          	ret
8000374c:	00070513          	mv	a0,a4
80003750:	e91ff06f          	j	800035e0 <__udivdi3+0x2e0>
80003754:	00068593          	mv	a1,a3
80003758:	f45ff06f          	j	8000369c <__udivdi3+0x39c>
8000375c:	00050e13          	mv	t3,a0
80003760:	e45ff06f          	j	800035a4 <__udivdi3+0x2a4>
80003764:	00088793          	mv	a5,a7
80003768:	ef9ff06f          	j	80003660 <__udivdi3+0x360>
8000376c:	ffe50513          	add	a0,a0,-2
80003770:	010787b3          	add	a5,a5,a6
80003774:	d59ff06f          	j	800034cc <__udivdi3+0x1cc>
80003778:	ffe50513          	add	a0,a0,-2
8000377c:	010787b3          	add	a5,a5,a6
80003780:	c21ff06f          	j	800033a0 <__udivdi3+0xa0>
80003784:	01865693          	srl	a3,a2,0x18
80003788:	01800713          	li	a4,24
8000378c:	cddff06f          	j	80003468 <__udivdi3+0x168>

80003790 <__umoddi3>:
80003790:	00060813          	mv	a6,a2
80003794:	00050893          	mv	a7,a0
80003798:	00058313          	mv	t1,a1
8000379c:	00058713          	mv	a4,a1
800037a0:	0c069863          	bnez	a3,80003870 <__umoddi3+0xe0>
800037a4:	12c5fa63          	bgeu	a1,a2,800038d8 <__umoddi3+0x148>
800037a8:	000107b7          	lui	a5,0x10
800037ac:	1cf66c63          	bltu	a2,a5,80003984 <__umoddi3+0x1f4>
800037b0:	010007b7          	lui	a5,0x1000
800037b4:	01800693          	li	a3,24
800037b8:	00f67463          	bgeu	a2,a5,800037c0 <__umoddi3+0x30>
800037bc:	01000693          	li	a3,16
800037c0:	800047b7          	lui	a5,0x80004
800037c4:	00d65333          	srl	t1,a2,a3
800037c8:	e1878793          	add	a5,a5,-488 # 80003e18 <__clz_tab>
800037cc:	006787b3          	add	a5,a5,t1
800037d0:	0007c783          	lbu	a5,0(a5)
800037d4:	02000313          	li	t1,32
800037d8:	00d787b3          	add	a5,a5,a3
800037dc:	40f306b3          	sub	a3,t1,a5
800037e0:	00f30c63          	beq	t1,a5,800037f8 <__umoddi3+0x68>
800037e4:	00d59733          	sll	a4,a1,a3
800037e8:	00f557b3          	srl	a5,a0,a5
800037ec:	00d61833          	sll	a6,a2,a3
800037f0:	00e7e733          	or	a4,a5,a4
800037f4:	00d518b3          	sll	a7,a0,a3
800037f8:	01085593          	srl	a1,a6,0x10
800037fc:	02b75633          	divu	a2,a4,a1
80003800:	01081313          	sll	t1,a6,0x10
80003804:	01035313          	srl	t1,t1,0x10
80003808:	0108d793          	srl	a5,a7,0x10
8000380c:	02b77733          	remu	a4,a4,a1
80003810:	02660633          	mul	a2,a2,t1
80003814:	01071713          	sll	a4,a4,0x10
80003818:	00e7e7b3          	or	a5,a5,a4
8000381c:	00c7f863          	bgeu	a5,a2,8000382c <__umoddi3+0x9c>
80003820:	00f807b3          	add	a5,a6,a5
80003824:	0107e463          	bltu	a5,a6,8000382c <__umoddi3+0x9c>
80003828:	3ac7e263          	bltu	a5,a2,80003bcc <__umoddi3+0x43c>
8000382c:	40c787b3          	sub	a5,a5,a2
80003830:	02b7d733          	divu	a4,a5,a1
80003834:	01089513          	sll	a0,a7,0x10
80003838:	01055513          	srl	a0,a0,0x10
8000383c:	02b7f7b3          	remu	a5,a5,a1
80003840:	02670733          	mul	a4,a4,t1
80003844:	01079793          	sll	a5,a5,0x10
80003848:	00f56533          	or	a0,a0,a5
8000384c:	00e57a63          	bgeu	a0,a4,80003860 <__umoddi3+0xd0>
80003850:	00a80533          	add	a0,a6,a0
80003854:	01056663          	bltu	a0,a6,80003860 <__umoddi3+0xd0>
80003858:	00e57463          	bgeu	a0,a4,80003860 <__umoddi3+0xd0>
8000385c:	01050533          	add	a0,a0,a6
80003860:	40e50533          	sub	a0,a0,a4
80003864:	00d55533          	srl	a0,a0,a3
80003868:	00000593          	li	a1,0
8000386c:	00008067          	ret
80003870:	00d5f463          	bgeu	a1,a3,80003878 <__umoddi3+0xe8>
80003874:	00008067          	ret
80003878:	000107b7          	lui	a5,0x10
8000387c:	1cf6e663          	bltu	a3,a5,80003a48 <__umoddi3+0x2b8>
80003880:	010007b7          	lui	a5,0x1000
80003884:	01800813          	li	a6,24
80003888:	00f6f463          	bgeu	a3,a5,80003890 <__umoddi3+0x100>
8000388c:	01000813          	li	a6,16
80003890:	800047b7          	lui	a5,0x80004
80003894:	0106d733          	srl	a4,a3,a6
80003898:	e1878793          	add	a5,a5,-488 # 80003e18 <__clz_tab>
8000389c:	00e787b3          	add	a5,a5,a4
800038a0:	0007c703          	lbu	a4,0(a5)
800038a4:	02000793          	li	a5,32
800038a8:	01070733          	add	a4,a4,a6
800038ac:	40e78833          	sub	a6,a5,a4
800038b0:	1ae79463          	bne	a5,a4,80003a58 <__umoddi3+0x2c8>
800038b4:	00b6e463          	bltu	a3,a1,800038bc <__umoddi3+0x12c>
800038b8:	00c56a63          	bltu	a0,a2,800038cc <__umoddi3+0x13c>
800038bc:	40c508b3          	sub	a7,a0,a2
800038c0:	40d586b3          	sub	a3,a1,a3
800038c4:	01153333          	sltu	t1,a0,a7
800038c8:	40668333          	sub	t1,a3,t1
800038cc:	00088513          	mv	a0,a7
800038d0:	00030593          	mv	a1,t1
800038d4:	00008067          	ret
800038d8:	0a060e63          	beqz	a2,80003994 <__umoddi3+0x204>
800038dc:	000107b7          	lui	a5,0x10
800038e0:	2cf67463          	bgeu	a2,a5,80003ba8 <__umoddi3+0x418>
800038e4:	10063713          	sltiu	a4,a2,256
800038e8:	00173713          	seqz	a4,a4
800038ec:	00371713          	sll	a4,a4,0x3
800038f0:	00e656b3          	srl	a3,a2,a4
800038f4:	800047b7          	lui	a5,0x80004
800038f8:	e1878793          	add	a5,a5,-488 # 80003e18 <__clz_tab>
800038fc:	00d787b3          	add	a5,a5,a3
80003900:	0007c783          	lbu	a5,0(a5)
80003904:	02000313          	li	t1,32
80003908:	00e787b3          	add	a5,a5,a4
8000390c:	40f306b3          	sub	a3,t1,a5
80003910:	0af31663          	bne	t1,a5,800039bc <__umoddi3+0x22c>
80003914:	40c58733          	sub	a4,a1,a2
80003918:	01065313          	srl	t1,a2,0x10
8000391c:	01061613          	sll	a2,a2,0x10
80003920:	01065613          	srl	a2,a2,0x10
80003924:	026755b3          	divu	a1,a4,t1
80003928:	0108d793          	srl	a5,a7,0x10
8000392c:	02677733          	remu	a4,a4,t1
80003930:	02c585b3          	mul	a1,a1,a2
80003934:	01071713          	sll	a4,a4,0x10
80003938:	00e7e7b3          	or	a5,a5,a4
8000393c:	00b7fa63          	bgeu	a5,a1,80003950 <__umoddi3+0x1c0>
80003940:	00f807b3          	add	a5,a6,a5
80003944:	0107e663          	bltu	a5,a6,80003950 <__umoddi3+0x1c0>
80003948:	00b7f463          	bgeu	a5,a1,80003950 <__umoddi3+0x1c0>
8000394c:	010787b3          	add	a5,a5,a6
80003950:	40b787b3          	sub	a5,a5,a1
80003954:	0267d733          	divu	a4,a5,t1
80003958:	01089893          	sll	a7,a7,0x10
8000395c:	0108d893          	srl	a7,a7,0x10
80003960:	0267f7b3          	remu	a5,a5,t1
80003964:	02c70733          	mul	a4,a4,a2
80003968:	01079513          	sll	a0,a5,0x10
8000396c:	00a8e533          	or	a0,a7,a0
80003970:	eee560e3          	bltu	a0,a4,80003850 <__umoddi3+0xc0>
80003974:	40e50533          	sub	a0,a0,a4
80003978:	00d55533          	srl	a0,a0,a3
8000397c:	00000593          	li	a1,0
80003980:	00008067          	ret
80003984:	10063693          	sltiu	a3,a2,256
80003988:	0016b693          	seqz	a3,a3
8000398c:	00369693          	sll	a3,a3,0x3
80003990:	e31ff06f          	j	800037c0 <__umoddi3+0x30>
80003994:	800047b7          	lui	a5,0x80004
80003998:	00000693          	li	a3,0
8000399c:	e1878793          	add	a5,a5,-488 # 80003e18 <__clz_tab>
800039a0:	00d787b3          	add	a5,a5,a3
800039a4:	0007c783          	lbu	a5,0(a5)
800039a8:	00000713          	li	a4,0
800039ac:	02000313          	li	t1,32
800039b0:	00e787b3          	add	a5,a5,a4
800039b4:	40f306b3          	sub	a3,t1,a5
800039b8:	f4f30ee3          	beq	t1,a5,80003914 <__umoddi3+0x184>
800039bc:	00d61833          	sll	a6,a2,a3
800039c0:	00f5de33          	srl	t3,a1,a5
800039c4:	01085313          	srl	t1,a6,0x10
800039c8:	026e5eb3          	divu	t4,t3,t1
800039cc:	01081613          	sll	a2,a6,0x10
800039d0:	00d595b3          	sll	a1,a1,a3
800039d4:	00f55733          	srl	a4,a0,a5
800039d8:	01065613          	srl	a2,a2,0x10
800039dc:	00b76733          	or	a4,a4,a1
800039e0:	01075793          	srl	a5,a4,0x10
800039e4:	00d518b3          	sll	a7,a0,a3
800039e8:	026e7e33          	remu	t3,t3,t1
800039ec:	02ce85b3          	mul	a1,t4,a2
800039f0:	010e1e13          	sll	t3,t3,0x10
800039f4:	01c7e7b3          	or	a5,a5,t3
800039f8:	00b7fa63          	bgeu	a5,a1,80003a0c <__umoddi3+0x27c>
800039fc:	00f807b3          	add	a5,a6,a5
80003a00:	0107e663          	bltu	a5,a6,80003a0c <__umoddi3+0x27c>
80003a04:	00b7f463          	bgeu	a5,a1,80003a0c <__umoddi3+0x27c>
80003a08:	010787b3          	add	a5,a5,a6
80003a0c:	40b787b3          	sub	a5,a5,a1
80003a10:	0267d5b3          	divu	a1,a5,t1
80003a14:	01071713          	sll	a4,a4,0x10
80003a18:	01075713          	srl	a4,a4,0x10
80003a1c:	0267f7b3          	remu	a5,a5,t1
80003a20:	02c585b3          	mul	a1,a1,a2
80003a24:	01079793          	sll	a5,a5,0x10
80003a28:	00f76733          	or	a4,a4,a5
80003a2c:	00b77a63          	bgeu	a4,a1,80003a40 <__umoddi3+0x2b0>
80003a30:	00e80733          	add	a4,a6,a4
80003a34:	01076663          	bltu	a4,a6,80003a40 <__umoddi3+0x2b0>
80003a38:	00b77463          	bgeu	a4,a1,80003a40 <__umoddi3+0x2b0>
80003a3c:	01070733          	add	a4,a4,a6
80003a40:	40b70733          	sub	a4,a4,a1
80003a44:	ee1ff06f          	j	80003924 <__umoddi3+0x194>
80003a48:	1006b813          	sltiu	a6,a3,256
80003a4c:	00183813          	seqz	a6,a6
80003a50:	00381813          	sll	a6,a6,0x3
80003a54:	e3dff06f          	j	80003890 <__umoddi3+0x100>
80003a58:	010696b3          	sll	a3,a3,a6
80003a5c:	00e658b3          	srl	a7,a2,a4
80003a60:	00d8e8b3          	or	a7,a7,a3
80003a64:	00e5de33          	srl	t3,a1,a4
80003a68:	0108df13          	srl	t5,a7,0x10
80003a6c:	03ee57b3          	divu	a5,t3,t5
80003a70:	01089e93          	sll	t4,a7,0x10
80003a74:	010ede93          	srl	t4,t4,0x10
80003a78:	00e556b3          	srl	a3,a0,a4
80003a7c:	01051333          	sll	t1,a0,a6
80003a80:	010595b3          	sll	a1,a1,a6
80003a84:	00b6e5b3          	or	a1,a3,a1
80003a88:	0105d693          	srl	a3,a1,0x10
80003a8c:	01061633          	sll	a2,a2,a6
80003a90:	03ee7e33          	remu	t3,t3,t5
80003a94:	02fe8533          	mul	a0,t4,a5
80003a98:	010e1e13          	sll	t3,t3,0x10
80003a9c:	01c6e6b3          	or	a3,a3,t3
80003aa0:	00a6fe63          	bgeu	a3,a0,80003abc <__umoddi3+0x32c>
80003aa4:	00d886b3          	add	a3,a7,a3
80003aa8:	fff78e13          	add	t3,a5,-1
80003aac:	1116ec63          	bltu	a3,a7,80003bc4 <__umoddi3+0x434>
80003ab0:	10a6fa63          	bgeu	a3,a0,80003bc4 <__umoddi3+0x434>
80003ab4:	ffe78793          	add	a5,a5,-2
80003ab8:	011686b3          	add	a3,a3,a7
80003abc:	40a686b3          	sub	a3,a3,a0
80003ac0:	03e6d533          	divu	a0,a3,t5
80003ac4:	01059593          	sll	a1,a1,0x10
80003ac8:	0105d593          	srl	a1,a1,0x10
80003acc:	03e6f6b3          	remu	a3,a3,t5
80003ad0:	02ae8eb3          	mul	t4,t4,a0
80003ad4:	01069693          	sll	a3,a3,0x10
80003ad8:	00d5e5b3          	or	a1,a1,a3
80003adc:	01d5fe63          	bgeu	a1,t4,80003af8 <__umoddi3+0x368>
80003ae0:	00b885b3          	add	a1,a7,a1
80003ae4:	fff50693          	add	a3,a0,-1
80003ae8:	0d15ea63          	bltu	a1,a7,80003bbc <__umoddi3+0x42c>
80003aec:	0dd5f863          	bgeu	a1,t4,80003bbc <__umoddi3+0x42c>
80003af0:	ffe50513          	add	a0,a0,-2
80003af4:	011585b3          	add	a1,a1,a7
80003af8:	01079693          	sll	a3,a5,0x10
80003afc:	000102b7          	lui	t0,0x10
80003b00:	00a6e6b3          	or	a3,a3,a0
80003b04:	fff28513          	add	a0,t0,-1 # ffff <buflen.1+0xffbf>
80003b08:	00a6fe33          	and	t3,a3,a0
80003b0c:	01065f93          	srl	t6,a2,0x10
80003b10:	0106d693          	srl	a3,a3,0x10
80003b14:	00a67533          	and	a0,a2,a0
80003b18:	02ae0f33          	mul	t5,t3,a0
80003b1c:	41d585b3          	sub	a1,a1,t4
80003b20:	02a68533          	mul	a0,a3,a0
80003b24:	010f5793          	srl	a5,t5,0x10
80003b28:	03fe0e33          	mul	t3,t3,t6
80003b2c:	00ae0e33          	add	t3,t3,a0
80003b30:	01c787b3          	add	a5,a5,t3
80003b34:	03f686b3          	mul	a3,a3,t6
80003b38:	00a7f463          	bgeu	a5,a0,80003b40 <__umoddi3+0x3b0>
80003b3c:	005686b3          	add	a3,a3,t0
80003b40:	00010eb7          	lui	t4,0x10
80003b44:	fffe8e93          	add	t4,t4,-1 # ffff <buflen.1+0xffbf>
80003b48:	01d7f533          	and	a0,a5,t4
80003b4c:	0107de13          	srl	t3,a5,0x10
80003b50:	01051513          	sll	a0,a0,0x10
80003b54:	01df7f33          	and	t5,t5,t4
80003b58:	00de07b3          	add	a5,t3,a3
80003b5c:	01e50533          	add	a0,a0,t5
80003b60:	02f5e863          	bltu	a1,a5,80003b90 <__umoddi3+0x400>
80003b64:	02f58463          	beq	a1,a5,80003b8c <__umoddi3+0x3fc>
80003b68:	40a30533          	sub	a0,t1,a0
80003b6c:	00a33333          	sltu	t1,t1,a0
80003b70:	40f585b3          	sub	a1,a1,a5
80003b74:	406585b3          	sub	a1,a1,t1
80003b78:	00e59733          	sll	a4,a1,a4
80003b7c:	01055533          	srl	a0,a0,a6
80003b80:	00a76533          	or	a0,a4,a0
80003b84:	0105d5b3          	srl	a1,a1,a6
80003b88:	00008067          	ret
80003b8c:	fca37ee3          	bgeu	t1,a0,80003b68 <__umoddi3+0x3d8>
80003b90:	40c50633          	sub	a2,a0,a2
80003b94:	00c53533          	sltu	a0,a0,a2
80003b98:	011508b3          	add	a7,a0,a7
80003b9c:	411787b3          	sub	a5,a5,a7
80003ba0:	00060513          	mv	a0,a2
80003ba4:	fc5ff06f          	j	80003b68 <__umoddi3+0x3d8>
80003ba8:	010007b7          	lui	a5,0x1000
80003bac:	02f67463          	bgeu	a2,a5,80003bd4 <__umoddi3+0x444>
80003bb0:	01065693          	srl	a3,a2,0x10
80003bb4:	01000713          	li	a4,16
80003bb8:	d3dff06f          	j	800038f4 <__umoddi3+0x164>
80003bbc:	00068513          	mv	a0,a3
80003bc0:	f39ff06f          	j	80003af8 <__umoddi3+0x368>
80003bc4:	000e0793          	mv	a5,t3
80003bc8:	ef5ff06f          	j	80003abc <__umoddi3+0x32c>
80003bcc:	010787b3          	add	a5,a5,a6
80003bd0:	c5dff06f          	j	8000382c <__umoddi3+0x9c>
80003bd4:	01865693          	srl	a3,a2,0x18
80003bd8:	01800713          	li	a4,24
80003bdc:	d19ff06f          	j	800038f4 <__umoddi3+0x164>

80003be0 <__eqdf2>:
80003be0:	0145d713          	srl	a4,a1,0x14
80003be4:	001007b7          	lui	a5,0x100
80003be8:	fff78793          	add	a5,a5,-1 # fffff <buflen.1+0xfffbf>
80003bec:	0146d813          	srl	a6,a3,0x14
80003bf0:	7ff77713          	and	a4,a4,2047
80003bf4:	7ff00313          	li	t1,2047
80003bf8:	00b7fe33          	and	t3,a5,a1
80003bfc:	00050893          	mv	a7,a0
80003c00:	00d7f7b3          	and	a5,a5,a3
80003c04:	01f5d593          	srl	a1,a1,0x1f
80003c08:	7ff87813          	and	a6,a6,2047
80003c0c:	01f6d693          	srl	a3,a3,0x1f
80003c10:	00100513          	li	a0,1
80003c14:	00670c63          	beq	a4,t1,80003c2c <__eqdf2+0x4c>
80003c18:	00680863          	beq	a6,t1,80003c28 <__eqdf2+0x48>
80003c1c:	01071463          	bne	a4,a6,80003c24 <__eqdf2+0x44>
80003c20:	02fe0663          	beq	t3,a5,80003c4c <__eqdf2+0x6c>
80003c24:	00008067          	ret
80003c28:	00008067          	ret
80003c2c:	fee81ce3          	bne	a6,a4,80003c24 <__eqdf2+0x44>
80003c30:	00fe67b3          	or	a5,t3,a5
80003c34:	00c7e7b3          	or	a5,a5,a2
80003c38:	0117e7b3          	or	a5,a5,a7
80003c3c:	fe0794e3          	bnez	a5,80003c24 <__eqdf2+0x44>
80003c40:	40d585b3          	sub	a1,a1,a3
80003c44:	00b03533          	snez	a0,a1
80003c48:	00008067          	ret
80003c4c:	fcc89ce3          	bne	a7,a2,80003c24 <__eqdf2+0x44>
80003c50:	00d58a63          	beq	a1,a3,80003c64 <__eqdf2+0x84>
80003c54:	fc0718e3          	bnez	a4,80003c24 <__eqdf2+0x44>
80003c58:	011e6e33          	or	t3,t3,a7
80003c5c:	01c03533          	snez	a0,t3
80003c60:	00008067          	ret
80003c64:	00000513          	li	a0,0
80003c68:	00008067          	ret
