
bins/asms/5-function.r5o:     file format elf32-littleriscv


Disassembly of section .text:

80002000 <main>:
80002000:	00006517          	auipc	a0,0x6
80002004:	00050513          	mv	a0,a0
80002008:	00006597          	auipc	a1,0x6
8000200c:	01c58593          	add	a1,a1,28 # 80008024 <B>
80002010:	00006617          	auipc	a2,0x6
80002014:	03860613          	add	a2,a2,56 # 80008048 <C>
80002018:	010000ef          	jal	80002028 <matmul>
8000201c:	00006297          	auipc	t0,0x6
80002020:	05028293          	add	t0,t0,80 # 8000806c <result>
80002024:	00a2a023          	sw	a0,0(t0)

80002028 <matmul>:
80002028:	ff010113          	add	sp,sp,-16
8000202c:	00112623          	sw	ra,12(sp)
80002030:	00812423          	sw	s0,8(sp)
80002034:	00912223          	sw	s1,4(sp)
80002038:	01212023          	sw	s2,0(sp)
8000203c:	00000413          	li	s0,0

80002040 <row_loop>:
80002040:	08645063          	bge	s0,t1,800020c0 <check_zero>
80002044:	00000493          	li	s1,0

80002048 <col_loop>:
80002048:	0664d863          	bge	s1,t1,800020b8 <next_row>
8000204c:	00000293          	li	t0,0
80002050:	00000913          	li	s2,0

80002054 <inner_loop>:
80002054:	04695263          	bge	s2,t1,80002098 <store_c>
80002058:	00300313          	li	t1,3
8000205c:	026403b3          	mul	t2,s0,t1
80002060:	012383b3          	add	t2,t2,s2
80002064:	00239393          	sll	t2,t2,0x2
80002068:	00750e33          	add	t3,a0,t2
8000206c:	000e2e83          	lw	t4,0(t3)
80002070:	00300313          	li	t1,3
80002074:	026903b3          	mul	t2,s2,t1
80002078:	009383b3          	add	t2,t2,s1
8000207c:	00239393          	sll	t2,t2,0x2
80002080:	00758e33          	add	t3,a1,t2
80002084:	000e2f03          	lw	t5,0(t3)
80002088:	03ee8fb3          	mul	t6,t4,t5
8000208c:	01f282b3          	add	t0,t0,t6
80002090:	00190913          	add	s2,s2,1
80002094:	fc1ff06f          	j	80002054 <inner_loop>

80002098 <store_c>:
80002098:	00300313          	li	t1,3
8000209c:	026403b3          	mul	t2,s0,t1
800020a0:	009383b3          	add	t2,t2,s1
800020a4:	00239393          	sll	t2,t2,0x2
800020a8:	00760e33          	add	t3,a2,t2
800020ac:	005e2023          	sw	t0,0(t3)
800020b0:	00148493          	add	s1,s1,1
800020b4:	f95ff06f          	j	80002048 <col_loop>

800020b8 <next_row>:
800020b8:	00140413          	add	s0,s0,1
800020bc:	f85ff06f          	j	80002040 <row_loop>

800020c0 <check_zero>:
800020c0:	00000413          	li	s0,0

800020c4 <check_loop>:
800020c4:	02645263          	bge	s0,t1,800020e8 <all_nonzero>
800020c8:	00241313          	sll	t1,s0,0x2
800020cc:	006603b3          	add	t2,a2,t1
800020d0:	0003ae03          	lw	t3,0(t2)
800020d4:	000e0663          	beqz	t3,800020e0 <return_zero>
800020d8:	00140413          	add	s0,s0,1
800020dc:	fe9ff06f          	j	800020c4 <check_loop>

800020e0 <return_zero>:
800020e0:	00000513          	li	a0,0
800020e4:	0080006f          	j	800020ec <end_func>

800020e8 <all_nonzero>:
800020e8:	00100513          	li	a0,1

800020ec <end_func>:
800020ec:	00c12083          	lw	ra,12(sp)
800020f0:	00812403          	lw	s0,8(sp)
800020f4:	00412483          	lw	s1,4(sp)
800020f8:	00012903          	lw	s2,0(sp)
800020fc:	01010113          	add	sp,sp,16
80002100:	00008067          	ret

80002104 <halt>:
80002104:	0000006f          	j	80002104 <halt>

Disassembly of section .data:

80008000 <A>:
80008000:	00000001          	.word	0x00000001
80008004:	00000002          	.word	0x00000002
80008008:	00000003          	.word	0x00000003
8000800c:	00000004          	.word	0x00000004
80008010:	00000002          	.word	0x00000002
80008014:	00000006          	.word	0x00000006
80008018:	00000007          	.word	0x00000007
8000801c:	00000008          	.word	0x00000008
80008020:	00000009          	.word	0x00000009

80008024 <B>:
80008024:	00000009          	.word	0x00000009
80008028:	00000008          	.word	0x00000008
8000802c:	00000007          	.word	0x00000007
80008030:	00000006          	.word	0x00000006
80008034:	00000005          	.word	0x00000005
80008038:	00000003          	.word	0x00000003
8000803c:	00000007          	.word	0x00000007
80008040:	00000002          	.word	0x00000002
80008044:	00000001          	.word	0x00000001

80008048 <C>:
	...

8000806c <result>:
8000806c:	00000000          	.word	0x00000000
